
/home/code/output/DW21_release/mk_image/image/sdk/build_tmp/DW21_release/sta/bin/dw21_sta_module_app.out:     file format elf32-littlearm


Disassembly of section .text2:

02000000 <Reset_Handler>:
 2000000:	b672      	cpsid	i
 2000002:	4817      	ldr	r0, [pc, #92]	; (2000060 <end_clear_rom_bss_loop+0x1e>)
 2000004:	f380 8808 	msr	MSP, r0
 2000008:	4916      	ldr	r1, [pc, #88]	; (2000064 <end_clear_rom_bss_loop+0x22>)
 200000a:	4b17      	ldr	r3, [pc, #92]	; (2000068 <end_clear_rom_bss_loop+0x26>)

0200000c <stack_fill>:
 200000c:	1a5b      	subs	r3, r3, r1
 200000e:	d004      	beq.n	200001a <stack_fill_loop_end>
 2000010:	4a16      	ldr	r2, [pc, #88]	; (200006c <end_clear_rom_bss_loop+0x2a>)

02000012 <stack_fill_loop>:
 2000012:	600a      	str	r2, [r1, #0]
 2000014:	3104      	adds	r1, #4
 2000016:	3b04      	subs	r3, #4
 2000018:	dcfb      	bgt.n	2000012 <stack_fill_loop>

0200001a <stack_fill_loop_end>:
 200001a:	4915      	ldr	r1, [pc, #84]	; (2000070 <end_clear_rom_bss_loop+0x2e>)
 200001c:	4b15      	ldr	r3, [pc, #84]	; (2000074 <end_clear_rom_bss_loop+0x32>)
 200001e:	1a5b      	subs	r3, r3, r1
 2000020:	d005      	beq.n	200002e <end_clear_bss_loop>
 2000022:	f04f 0200 	mov.w	r2, #0

02000026 <clear_bss_loop>:
 2000026:	600a      	str	r2, [r1, #0]
 2000028:	3104      	adds	r1, #4
 200002a:	3b04      	subs	r3, #4
 200002c:	dcfb      	bgt.n	2000026 <clear_bss_loop>

0200002e <end_clear_bss_loop>:
 200002e:	4912      	ldr	r1, [pc, #72]	; (2000078 <end_clear_rom_bss_loop+0x36>)
 2000030:	4b12      	ldr	r3, [pc, #72]	; (200007c <end_clear_rom_bss_loop+0x3a>)
 2000032:	1a5b      	subs	r3, r3, r1
 2000034:	d005      	beq.n	2000042 <end_clear_rom_bss_loop>
 2000036:	f04f 0200 	mov.w	r2, #0

0200003a <clear_rom_bss_loop>:
 200003a:	600a      	str	r2, [r1, #0]
 200003c:	3104      	adds	r1, #4
 200003e:	3b04      	subs	r3, #4
 2000040:	dcfb      	bgt.n	200003a <clear_rom_bss_loop>

02000042 <end_clear_rom_bss_loop>:
 2000042:	4c0f      	ldr	r4, [pc, #60]	; (2000080 <end_clear_rom_bss_loop+0x3e>)
 2000044:	f44f 3500 	mov.w	r5, #131072	; 0x20000
 2000048:	6025      	str	r5, [r4, #0]
 200004a:	4c0e      	ldr	r4, [pc, #56]	; (2000084 <end_clear_rom_bss_loop+0x42>)
 200004c:	f04f 0510 	mov.w	r5, #16
 2000050:	6823      	ldr	r3, [r4, #0]
 2000052:	ea43 0305 	orr.w	r3, r3, r5
 2000056:	6023      	str	r3, [r4, #0]
 2000058:	b662      	cpsie	i
 200005a:	f8df f02c 	ldr.w	pc, [pc, #44]	; 2000088 <end_clear_rom_bss_loop+0x46>
 200005e:	0000      	.short	0x0000
 2000060:	0200af78 	.word	0x0200af78
 2000064:	0200a678 	.word	0x0200a678
 2000068:	0200af78 	.word	0x0200af78
 200006c:	efbeadde 	.word	0xefbeadde
 2000070:	0200af78 	.word	0x0200af78
 2000074:	02010328 	.word	0x02010328
 2000078:	02001000 	.word	0x02001000
 200007c:	02001420 	.word	0x02001420
 2000080:	e000ed24 	.word	0xe000ed24
 2000084:	e000ed14 	.word	0xe000ed14
 2000088:	02001d35 	.word	0x02001d35

0200008c <osExcNMI>:
 200008c:	2010      	movs	r0, #16
 200008e:	f000 b809 	b.w	20000a4 <osCrashProc>

02000092 <osExcHardFault>:
 2000092:	2011      	movs	r0, #17
 2000094:	f000 b806 	b.w	20000a4 <osCrashProc>

02000098 <osExcSvcCall>:
 2000098:	2017      	movs	r0, #23
 200009a:	f000 b803 	b.w	20000a4 <osCrashProc>

0200009e <osExcWatchDog>:
 200009e:	2018      	movs	r0, #24
 20000a0:	f000 b800 	b.w	20000a4 <osCrashProc>

020000a4 <osCrashProc>:
 20000a4:	f01e 0f04 	tst.w	lr, #4
 20000a8:	bf0c      	ite	eq
 20000aa:	f3ef 8108 	mrseq	r1, MSP
 20000ae:	f3ef 8109 	mrsne	r1, PSP
 20000b2:	4a10      	ldr	r2, [pc, #64]	; (20000f4 <LOS_Panic_Patch+0x6>)
 20000b4:	f502 6280 	add.w	r2, r2, #1024	; 0x400
 20000b8:	f842 1d04 	str.w	r1, [r2, #-4]!
 20000bc:	e922 0ff0 	stmdb	r2!, {r4, r5, r6, r7, r8, r9, sl, fp}
 20000c0:	e8b1 0ff0 	ldmia.w	r1!, {r4, r5, r6, r7, r8, r9, sl, fp}
 20000c4:	e922 0ff0 	stmdb	r2!, {r4, r5, r6, r7, r8, r9, sl, fp}
 20000c8:	f3ef 8410 	mrs	r4, PRIMASK
 20000cc:	f842 4d04 	str.w	r4, [r2, #-4]!
 20000d0:	f842 0d04 	str.w	r0, [r2, #-4]!
 20000d4:	f842 ed04 	str.w	lr, [r2, #-4]!
 20000d8:	f3ef 8408 	mrs	r4, MSP
 20000dc:	f3ef 8509 	mrs	r5, PSP
 20000e0:	e922 0030 	stmdb	r2!, {r4, r5}
 20000e4:	f382 8808 	msr	MSP, r2
 20000e8:	4611      	mov	r1, r2
 20000ea:	f005 ff75 	bl	2005fd8 <osa_exc_hook>

020000ee <LOS_Panic_Patch>:
 20000ee:	df00      	svc	0
 20000f0:	bf00      	nop
 20000f2:	0000      	.short	0x0000
 20000f4:	0200a678 	.word	0x0200a678

Disassembly of section .text5:

02001428 <os_cpup_lrq_start>:
 2001428:	b508      	push	{r3, lr}
 200142a:	f202 fe29 	bl	2204080 <osGetCpuCycle>
 200142e:	4b02      	ldr	r3, [pc, #8]	; (2001438 <os_cpup_lrq_start+0x10>)
 2001430:	e9c3 0100 	strd	r0, r1, [r3]
 2001434:	bd08      	pop	{r3, pc}
 2001436:	bf00      	nop
 2001438:	0200c3f0 	.word	0x0200c3f0

0200143c <os_cpup_lrq_end>:
 200143c:	b5f8      	push	{r3, r4, r5, r6, r7, lr}
 200143e:	4606      	mov	r6, r0
 2001440:	f202 fe1e 	bl	2204080 <osGetCpuCycle>
 2001444:	f04f 0c10 	mov.w	ip, #16
 2001448:	4a1f      	ldr	r2, [pc, #124]	; (20014c8 <os_cpup_lrq_end+0x8c>)
 200144a:	4b20      	ldr	r3, [pc, #128]	; (20014cc <os_cpup_lrq_end+0x90>)
 200144c:	6812      	ldr	r2, [r2, #0]
 200144e:	4c20      	ldr	r4, [pc, #128]	; (20014d0 <os_cpup_lrq_end+0x94>)
 2001450:	681b      	ldr	r3, [r3, #0]
 2001452:	4432      	add	r2, r6
 2001454:	e9d4 5400 	ldrd	r5, r4, [r4]
 2001458:	eb02 0242 	add.w	r2, r2, r2, lsl #1
 200145c:	4285      	cmp	r5, r0
 200145e:	f843 6032 	str.w	r6, [r3, r2, lsl #3]
 2001462:	eb03 03c2 	add.w	r3, r3, r2, lsl #3
 2001466:	eb74 0201 	sbcs.w	r2, r4, r1
 200146a:	f8a3 c004 	strh.w	ip, [r3, #4]
 200146e:	d31a      	bcc.n	20014a6 <os_cpup_lrq_end+0x6a>
 2001470:	4a18      	ldr	r2, [pc, #96]	; (20014d4 <os_cpup_lrq_end+0x98>)
 2001472:	6816      	ldr	r6, [r2, #0]
 2001474:	4a18      	ldr	r2, [pc, #96]	; (20014d8 <os_cpup_lrq_end+0x9c>)
 2001476:	3601      	adds	r6, #1
 2001478:	6812      	ldr	r2, [r2, #0]
 200147a:	fbb2 f2f6 	udiv	r2, r2, r6
 200147e:	1b57      	subs	r7, r2, r5
 2001480:	463a      	mov	r2, r7
 2001482:	689d      	ldr	r5, [r3, #8]
 2001484:	4e15      	ldr	r6, [pc, #84]	; (20014dc <os_cpup_lrq_end+0xa0>)
 2001486:	eb64 0444 	sbc.w	r4, r4, r4, lsl #1
 200148a:	197d      	adds	r5, r7, r5
 200148c:	68df      	ldr	r7, [r3, #12]
 200148e:	eb44 0407 	adc.w	r4, r4, r7
 2001492:	6837      	ldr	r7, [r6, #0]
 2001494:	182d      	adds	r5, r5, r0
 2001496:	443a      	add	r2, r7
 2001498:	4402      	add	r2, r0
 200149a:	eb41 0104 	adc.w	r1, r1, r4
 200149e:	e9c3 5102 	strd	r5, r1, [r3, #8]
 20014a2:	6032      	str	r2, [r6, #0]
 20014a4:	bdf8      	pop	{r3, r4, r5, r6, r7, pc}
 20014a6:	4f0d      	ldr	r7, [pc, #52]	; (20014dc <os_cpup_lrq_end+0xa0>)
 20014a8:	689e      	ldr	r6, [r3, #8]
 20014aa:	683a      	ldr	r2, [r7, #0]
 20014ac:	1b76      	subs	r6, r6, r5
 20014ae:	eba2 0205 	sub.w	r2, r2, r5
 20014b2:	4402      	add	r2, r0
 20014b4:	603a      	str	r2, [r7, #0]
 20014b6:	68da      	ldr	r2, [r3, #12]
 20014b8:	eb62 0404 	sbc.w	r4, r2, r4
 20014bc:	1830      	adds	r0, r6, r0
 20014be:	eb41 0104 	adc.w	r1, r1, r4
 20014c2:	e9c3 0102 	strd	r0, r1, [r3, #8]
 20014c6:	bdf8      	pop	{r3, r4, r5, r6, r7, pc}
 20014c8:	02001180 	.word	0x02001180
 20014cc:	020011f4 	.word	0x020011f4
 20014d0:	0200c3f0 	.word	0x0200c3f0
 20014d4:	02001228 	.word	0x02001228
 20014d8:	02001240 	.word	0x02001240
 20014dc:	020011f8 	.word	0x020011f8

020014e0 <osUnwindBacktrace>:
 20014e0:	4770      	bx	lr
 20014e2:	bf00      	nop

020014e4 <osExcHandleEntry>:
 20014e4:	4e07      	ldr	r6, [pc, #28]	; (2001504 <osExcHandleEntry+0x20>)
 20014e6:	4d08      	ldr	r5, [pc, #32]	; (2001508 <osExcHandleEntry+0x24>)
 20014e8:	4c08      	ldr	r4, [pc, #32]	; (200150c <osExcHandleEntry+0x28>)
 20014ea:	6831      	ldr	r1, [r6, #0]
 20014ec:	682a      	ldr	r2, [r5, #0]
 20014ee:	6824      	ldr	r4, [r4, #0]
 20014f0:	3101      	adds	r1, #1
 20014f2:	3201      	adds	r2, #1
 20014f4:	b508      	push	{r3, lr}
 20014f6:	6031      	str	r1, [r6, #0]
 20014f8:	602a      	str	r2, [r5, #0]
 20014fa:	b10c      	cbz	r4, 2001500 <osExcHandleEntry+0x1c>
 20014fc:	4619      	mov	r1, r3
 20014fe:	47a0      	blx	r4
 2001500:	e7fe      	b.n	2001500 <osExcHandleEntry+0x1c>
 2001502:	bf00      	nop
 2001504:	0200c3f8 	.word	0x0200c3f8
 2001508:	0200110c 	.word	0x0200110c
 200150c:	02001000 	.word	0x02001000

02001510 <osInterrupt>:
 2001510:	4a22      	ldr	r2, [pc, #136]	; (200159c <osInterrupt+0x8c>)
 2001512:	b570      	push	{r4, r5, r6, lr}
 2001514:	6913      	ldr	r3, [r2, #16]
 2001516:	4d22      	ldr	r5, [pc, #136]	; (20015a0 <osInterrupt+0x90>)
 2001518:	f023 0304 	bic.w	r3, r3, #4
 200151c:	6113      	str	r3, [r2, #16]
 200151e:	f1fe fd9f 	bl	2200060 <LOS_IntLock>
 2001522:	682b      	ldr	r3, [r5, #0]
 2001524:	3301      	adds	r3, #1
 2001526:	602b      	str	r3, [r5, #0]
 2001528:	f1fe fdaa 	bl	2200080 <LOS_IntRestore>
 200152c:	f1fe fed4 	bl	22002d8 <osIntNumGet>
 2001530:	4b1c      	ldr	r3, [pc, #112]	; (20015a4 <osInterrupt+0x94>)
 2001532:	f1a0 0210 	sub.w	r2, r0, #16
 2001536:	280e      	cmp	r0, #14
 2001538:	4604      	mov	r4, r0
 200153a:	601a      	str	r2, [r3, #0]
 200153c:	d822      	bhi.n	2001584 <osInterrupt+0x74>
 200153e:	4b1a      	ldr	r3, [pc, #104]	; (20015a8 <osInterrupt+0x98>)
 2001540:	681e      	ldr	r6, [r3, #0]
 2001542:	b126      	cbz	r6, 200154e <osInterrupt+0x3e>
 2001544:	2300      	movs	r3, #0
 2001546:	2010      	movs	r0, #16
 2001548:	461a      	mov	r2, r3
 200154a:	b2a1      	uxth	r1, r4
 200154c:	47b0      	blx	r6
 200154e:	4a17      	ldr	r2, [pc, #92]	; (20015ac <osInterrupt+0x9c>)
 2001550:	4b17      	ldr	r3, [pc, #92]	; (20015b0 <osInterrupt+0xa0>)
 2001552:	f8d2 1200 	ldr.w	r1, [r2, #512]	; 0x200
 2001556:	4a17      	ldr	r2, [pc, #92]	; (20015b4 <osInterrupt+0xa4>)
 2001558:	6011      	str	r1, [r2, #0]
 200155a:	f853 2034 	ldr.w	r2, [r3, r4, lsl #3]
 200155e:	b11a      	cbz	r2, 2001568 <osInterrupt+0x58>
 2001560:	eb03 03c4 	add.w	r3, r3, r4, lsl #3
 2001564:	6858      	ldr	r0, [r3, #4]
 2001566:	4790      	blx	r2
 2001568:	f1fe fd7a 	bl	2200060 <LOS_IntLock>
 200156c:	682b      	ldr	r3, [r5, #0]
 200156e:	2c0e      	cmp	r4, #14
 2001570:	f103 33ff 	add.w	r3, r3, #4294967295	; 0xffffffff
 2001574:	602b      	str	r3, [r5, #0]
 2001576:	4605      	mov	r5, r0
 2001578:	d807      	bhi.n	200158a <osInterrupt+0x7a>
 200157a:	4628      	mov	r0, r5
 200157c:	e8bd 4070 	ldmia.w	sp!, {r4, r5, r6, lr}
 2001580:	f1fe bd7e 	b.w	2200080 <LOS_IntRestore>
 2001584:	f7ff ff50 	bl	2001428 <os_cpup_lrq_start>
 2001588:	e7d9      	b.n	200153e <osInterrupt+0x2e>
 200158a:	f1a4 000f 	sub.w	r0, r4, #15
 200158e:	f7ff ff55 	bl	200143c <os_cpup_lrq_end>
 2001592:	4628      	mov	r0, r5
 2001594:	e8bd 4070 	ldmia.w	sp!, {r4, r5, r6, lr}
 2001598:	f1fe bd72 	b.w	2200080 <LOS_IntRestore>
 200159c:	e000ed00 	.word	0xe000ed00
 20015a0:	0200110c 	.word	0x0200110c
 20015a4:	0200c3fc 	.word	0x0200c3fc
 20015a8:	020011fc 	.word	0x020011fc
 20015ac:	e000e100 	.word	0xe000e100
 20015b0:	02001004 	.word	0x02001004
 20015b4:	0200c400 	.word	0x0200c400

020015b8 <on_register>:
 20015b8:	e92d 47f0 	stmdb	sp!, {r4, r5, r6, r7, r8, r9, sl, lr}
 20015bc:	250f      	movs	r5, #15
 20015be:	240e      	movs	r4, #14
 20015c0:	4a2a      	ldr	r2, [pc, #168]	; (200166c <on_register+0xb4>)
 20015c2:	482b      	ldr	r0, [pc, #172]	; (2001670 <on_register+0xb8>)
 20015c4:	4b2b      	ldr	r3, [pc, #172]	; (2001674 <on_register+0xbc>)
 20015c6:	6015      	str	r5, [r2, #0]
 20015c8:	492b      	ldr	r1, [pc, #172]	; (2001678 <on_register+0xc0>)
 20015ca:	4a2c      	ldr	r2, [pc, #176]	; (200167c <on_register+0xc4>)
 20015cc:	1a1b      	subs	r3, r3, r0
 20015ce:	600c      	str	r4, [r1, #0]
 20015d0:	6010      	str	r0, [r2, #0]
 20015d2:	4619      	mov	r1, r3
 20015d4:	2200      	movs	r2, #0
 20015d6:	f206 fd8b 	bl	22080f0 <memset_s>
 20015da:	f04f 0963 	mov.w	r9, #99	; 0x63
 20015de:	4828      	ldr	r0, [pc, #160]	; (2001680 <on_register+0xc8>)
 20015e0:	4b28      	ldr	r3, [pc, #160]	; (2001684 <on_register+0xcc>)
 20015e2:	4c29      	ldr	r4, [pc, #164]	; (2001688 <on_register+0xd0>)
 20015e4:	1a1b      	subs	r3, r3, r0
 20015e6:	f04f 081e 	mov.w	r8, #30
 20015ea:	4619      	mov	r1, r3
 20015ec:	2200      	movs	r2, #0
 20015ee:	6020      	str	r0, [r4, #0]
 20015f0:	f206 fd7e 	bl	22080f0 <memset_s>
 20015f4:	f04f 0e01 	mov.w	lr, #1
 20015f8:	f04f 0c07 	mov.w	ip, #7
 20015fc:	273b      	movs	r7, #59	; 0x3b
 20015fe:	2680      	movs	r6, #128	; 0x80
 2001600:	f44f 75c0 	mov.w	r5, #384	; 0x180
 2001604:	f44f 5180 	mov.w	r1, #4096	; 0x1000
 2001608:	200a      	movs	r0, #10
 200160a:	2402      	movs	r4, #2
 200160c:	f44f 6280 	mov.w	r2, #1024	; 0x400
 2001610:	4b1e      	ldr	r3, [pc, #120]	; (200168c <on_register+0xd4>)
 2001612:	f8df a07c 	ldr.w	sl, [pc, #124]	; 2001690 <on_register+0xd8>
 2001616:	f8c3 a000 	str.w	sl, [r3]
 200161a:	4b1e      	ldr	r3, [pc, #120]	; (2001694 <on_register+0xdc>)
 200161c:	f8c3 9000 	str.w	r9, [r3]
 2001620:	4b1d      	ldr	r3, [pc, #116]	; (2001698 <on_register+0xe0>)
 2001622:	f8c3 8000 	str.w	r8, [r3]
 2001626:	4b1d      	ldr	r3, [pc, #116]	; (200169c <on_register+0xe4>)
 2001628:	f8c3 e000 	str.w	lr, [r3]
 200162c:	4b1c      	ldr	r3, [pc, #112]	; (20016a0 <on_register+0xe8>)
 200162e:	f8c3 c000 	str.w	ip, [r3]
 2001632:	4b1c      	ldr	r3, [pc, #112]	; (20016a4 <on_register+0xec>)
 2001634:	601f      	str	r7, [r3, #0]
 2001636:	4b1c      	ldr	r3, [pc, #112]	; (20016a8 <on_register+0xf0>)
 2001638:	601e      	str	r6, [r3, #0]
 200163a:	4b1c      	ldr	r3, [pc, #112]	; (20016ac <on_register+0xf4>)
 200163c:	601d      	str	r5, [r3, #0]
 200163e:	4b1c      	ldr	r3, [pc, #112]	; (20016b0 <on_register+0xf8>)
 2001640:	6019      	str	r1, [r3, #0]
 2001642:	4b1c      	ldr	r3, [pc, #112]	; (20016b4 <on_register+0xfc>)
 2001644:	491c      	ldr	r1, [pc, #112]	; (20016b8 <on_register+0x100>)
 2001646:	6018      	str	r0, [r3, #0]
 2001648:	4b1c      	ldr	r3, [pc, #112]	; (20016bc <on_register+0x104>)
 200164a:	600c      	str	r4, [r1, #0]
 200164c:	601a      	str	r2, [r3, #0]
 200164e:	481c      	ldr	r0, [pc, #112]	; (20016c0 <on_register+0x108>)
 2001650:	4b1c      	ldr	r3, [pc, #112]	; (20016c4 <on_register+0x10c>)
 2001652:	4a1d      	ldr	r2, [pc, #116]	; (20016c8 <on_register+0x110>)
 2001654:	4c1d      	ldr	r4, [pc, #116]	; (20016cc <on_register+0x114>)
 2001656:	601a      	str	r2, [r3, #0]
 2001658:	491d      	ldr	r1, [pc, #116]	; (20016d0 <on_register+0x118>)
 200165a:	4b1e      	ldr	r3, [pc, #120]	; (20016d4 <on_register+0x11c>)
 200165c:	4a1e      	ldr	r2, [pc, #120]	; (20016d8 <on_register+0x120>)
 200165e:	6004      	str	r4, [r0, #0]
 2001660:	481e      	ldr	r0, [pc, #120]	; (20016dc <on_register+0x124>)
 2001662:	601a      	str	r2, [r3, #0]
 2001664:	6008      	str	r0, [r1, #0]
 2001666:	e8bd 87f0 	ldmia.w	sp!, {r4, r5, r6, r7, r8, r9, sl, pc}
 200166a:	bf00      	nop
 200166c:	02001180 	.word	0x02001180
 2001670:	02008af0 	.word	0x02008af0
 2001674:	02008b2c 	.word	0x02008b2c
 2001678:	0200122c 	.word	0x0200122c
 200167c:	0200114c 	.word	0x0200114c
 2001680:	02008ab0 	.word	0x02008ab0
 2001684:	02008aec 	.word	0x02008aec
 2001688:	020011ec 	.word	0x020011ec
 200168c:	02001240 	.word	0x02001240
 2001690:	04c4b400 	.word	0x04c4b400
 2001694:	02001228 	.word	0x02001228
 2001698:	0200123c 	.word	0x0200123c
 200169c:	02001238 	.word	0x02001238
 20016a0:	02001234 	.word	0x02001234
 20016a4:	02001230 	.word	0x02001230
 20016a8:	02001224 	.word	0x02001224
 20016ac:	02001220 	.word	0x02001220
 20016b0:	0200121c 	.word	0x0200121c
 20016b4:	02001218 	.word	0x02001218
 20016b8:	02001214 	.word	0x02001214
 20016bc:	02001210 	.word	0x02001210
 20016c0:	020011f0 	.word	0x020011f0
 20016c4:	0200120c 	.word	0x0200120c
 20016c8:	02001511 	.word	0x02001511
 20016cc:	02001de5 	.word	0x02001de5
 20016d0:	02001204 	.word	0x02001204
 20016d4:	02001200 	.word	0x02001200
 20016d8:	02001899 	.word	0x02001899
 20016dc:	02001859 	.word	0x02001859

020016e0 <LOS_Start>:
 20016e0:	b510      	push	{r4, lr}
 20016e2:	f000 f91b 	bl	200191c <os_timer_init>
 20016e6:	4604      	mov	r4, r0
 20016e8:	b918      	cbnz	r0, 20016f2 <LOS_Start+0x12>
 20016ea:	f1fe fc89 	bl	2200000 <LOS_StartToRun>
 20016ee:	4620      	mov	r0, r4
 20016f0:	bd10      	pop	{r4, pc}
 20016f2:	4804      	ldr	r0, [pc, #16]	; (2001704 <LOS_Start+0x24>)
 20016f4:	f203 fbfe 	bl	2204ef4 <printf>
 20016f8:	4803      	ldr	r0, [pc, #12]	; (2001708 <LOS_Start+0x28>)
 20016fa:	f203 fbfb 	bl	2204ef4 <printf>
 20016fe:	4620      	mov	r0, r4
 2001700:	bd10      	pop	{r4, pc}
 2001702:	bf00      	nop
 2001704:	020081b0 	.word	0x020081b0
 2001708:	020081b8 	.word	0x020081b8

0200170c <board_config>:
 200170c:	4a04      	ldr	r2, [pc, #16]	; (2001720 <board_config+0x14>)
 200170e:	4b05      	ldr	r3, [pc, #20]	; (2001724 <board_config+0x18>)
 2001710:	6812      	ldr	r2, [r2, #0]
 2001712:	681b      	ldr	r3, [r3, #0]
 2001714:	4904      	ldr	r1, [pc, #16]	; (2001728 <board_config+0x1c>)
 2001716:	3a01      	subs	r2, #1
 2001718:	4413      	add	r3, r2
 200171a:	600b      	str	r3, [r1, #0]
 200171c:	4770      	bx	lr
 200171e:	bf00      	nop
 2001720:	02000488 	.word	0x02000488
 2001724:	02000484 	.word	0x02000484
 2001728:	02001290 	.word	0x02001290

0200172c <osExcInit>:
 200172c:	4b03      	ldr	r3, [pc, #12]	; (200173c <osExcInit+0x10>)
 200172e:	4804      	ldr	r0, [pc, #16]	; (2001740 <osExcInit+0x14>)
 2001730:	4904      	ldr	r1, [pc, #16]	; (2001744 <osExcInit+0x18>)
 2001732:	4a05      	ldr	r2, [pc, #20]	; (2001748 <osExcInit+0x1c>)
 2001734:	e9c3 0102 	strd	r0, r1, [r3, #8]
 2001738:	62da      	str	r2, [r3, #44]	; 0x2c
 200173a:	4770      	bx	lr
 200173c:	02000400 	.word	0x02000400
 2001740:	0200008d 	.word	0x0200008d
 2001744:	02000093 	.word	0x02000093
 2001748:	02000099 	.word	0x02000099

0200174c <LOS_KernelInit>:
 200174c:	b510      	push	{r4, lr}
 200174e:	f7ff ff33 	bl	20015b8 <on_register>
 2001752:	4a35      	ldr	r2, [pc, #212]	; (2001828 <LOS_KernelInit+0xdc>)
 2001754:	4b35      	ldr	r3, [pc, #212]	; (200182c <LOS_KernelInit+0xe0>)
 2001756:	6812      	ldr	r2, [r2, #0]
 2001758:	601a      	str	r2, [r3, #0]
 200175a:	f202 f919 	bl	2203990 <osMemSystemInit>
 200175e:	4604      	mov	r4, r0
 2001760:	2800      	cmp	r0, #0
 2001762:	d142      	bne.n	20017ea <LOS_KernelInit+0x9e>
 2001764:	f1fe fdd0 	bl	2200308 <osHwiInit>
 2001768:	2068      	movs	r0, #104	; 0x68
 200176a:	4a31      	ldr	r2, [pc, #196]	; (2001830 <LOS_KernelInit+0xe4>)
 200176c:	4b31      	ldr	r3, [pc, #196]	; (2001834 <LOS_KernelInit+0xe8>)
 200176e:	6812      	ldr	r2, [r2, #0]
 2001770:	681b      	ldr	r3, [r3, #0]
 2001772:	fb02 0000 	mla	r0, r2, r0, r0
 2001776:	ebc3 03c3 	rsb	r3, r3, r3, lsl #3
 200177a:	eb00 0083 	add.w	r0, r0, r3, lsl #2
 200177e:	f500 70f2 	add.w	r0, r0, #484	; 0x1e4
 2001782:	f7ff ffd3 	bl	200172c <osExcInit>
 2001786:	4620      	mov	r0, r4
 2001788:	f1ff fda0 	bl	22012cc <osTaskInit>
 200178c:	4604      	mov	r4, r0
 200178e:	bb20      	cbnz	r0, 20017da <LOS_KernelInit+0x8e>
 2001790:	f1ff fe26 	bl	22013e0 <osTaskMonInit>
 2001794:	4b28      	ldr	r3, [pc, #160]	; (2001838 <LOS_KernelInit+0xec>)
 2001796:	4a29      	ldr	r2, [pc, #164]	; (200183c <LOS_KernelInit+0xf0>)
 2001798:	4620      	mov	r0, r4
 200179a:	601a      	str	r2, [r3, #0]
 200179c:	f201 fb4e 	bl	2202e3c <osSemInit>
 20017a0:	4604      	mov	r4, r0
 20017a2:	bb00      	cbnz	r0, 20017e6 <LOS_KernelInit+0x9a>
 20017a4:	f200 fd4c 	bl	2202240 <osMuxInit>
 20017a8:	4604      	mov	r4, r0
 20017aa:	b9e0      	cbnz	r0, 20017e6 <LOS_KernelInit+0x9a>
 20017ac:	f201 f8a0 	bl	22028f0 <osQueueInit>
 20017b0:	4604      	mov	r4, r0
 20017b2:	bb50      	cbnz	r0, 200180a <LOS_KernelInit+0xbe>
 20017b4:	f1fe fffc 	bl	22007b0 <osSwTmrInit>
 20017b8:	4604      	mov	r4, r0
 20017ba:	b9f8      	cbnz	r0, 20017fc <LOS_KernelInit+0xb0>
 20017bc:	201e      	movs	r0, #30
 20017be:	f000 f971 	bl	2001aa4 <LOS_TrackInit>
 20017c2:	4604      	mov	r4, r0
 20017c4:	bb40      	cbnz	r0, 2001818 <LOS_KernelInit+0xcc>
 20017c6:	f64f 70ff 	movw	r0, #65535	; 0xffff
 20017ca:	f000 f9b1 	bl	2001b30 <LOS_TrackStart>
 20017ce:	f200 fbcf 	bl	2201f70 <osTimesliceInit>
 20017d2:	e8bd 4010 	ldmia.w	sp!, {r4, lr}
 20017d6:	f1ff bf55 	b.w	2201684 <osIdleTaskCreate>
 20017da:	4819      	ldr	r0, [pc, #100]	; (2001840 <LOS_KernelInit+0xf4>)
 20017dc:	f203 fb8a 	bl	2204ef4 <printf>
 20017e0:	4818      	ldr	r0, [pc, #96]	; (2001844 <LOS_KernelInit+0xf8>)
 20017e2:	f203 fb87 	bl	2204ef4 <printf>
 20017e6:	4620      	mov	r0, r4
 20017e8:	bd10      	pop	{r4, pc}
 20017ea:	4815      	ldr	r0, [pc, #84]	; (2001840 <LOS_KernelInit+0xf4>)
 20017ec:	f203 fb82 	bl	2204ef4 <printf>
 20017f0:	4621      	mov	r1, r4
 20017f2:	4815      	ldr	r0, [pc, #84]	; (2001848 <LOS_KernelInit+0xfc>)
 20017f4:	f203 fb7e 	bl	2204ef4 <printf>
 20017f8:	4620      	mov	r0, r4
 20017fa:	bd10      	pop	{r4, pc}
 20017fc:	4810      	ldr	r0, [pc, #64]	; (2001840 <LOS_KernelInit+0xf4>)
 20017fe:	f203 fb79 	bl	2204ef4 <printf>
 2001802:	4812      	ldr	r0, [pc, #72]	; (200184c <LOS_KernelInit+0x100>)
 2001804:	f203 fb76 	bl	2204ef4 <printf>
 2001808:	e7ed      	b.n	20017e6 <LOS_KernelInit+0x9a>
 200180a:	480d      	ldr	r0, [pc, #52]	; (2001840 <LOS_KernelInit+0xf4>)
 200180c:	f203 fb72 	bl	2204ef4 <printf>
 2001810:	480f      	ldr	r0, [pc, #60]	; (2001850 <LOS_KernelInit+0x104>)
 2001812:	f203 fb6f 	bl	2204ef4 <printf>
 2001816:	e7e6      	b.n	20017e6 <LOS_KernelInit+0x9a>
 2001818:	4809      	ldr	r0, [pc, #36]	; (2001840 <LOS_KernelInit+0xf4>)
 200181a:	f203 fb6b 	bl	2204ef4 <printf>
 200181e:	480d      	ldr	r0, [pc, #52]	; (2001854 <LOS_KernelInit+0x108>)
 2001820:	f203 fb68 	bl	2204ef4 <printf>
 2001824:	e7df      	b.n	20017e6 <LOS_KernelInit+0x9a>
 2001826:	bf00      	nop
 2001828:	02000490 	.word	0x02000490
 200182c:	02001248 	.word	0x02001248
 2001830:	0200122c 	.word	0x0200122c
 2001834:	02001234 	.word	0x02001234
 2001838:	02001128 	.word	0x02001128
 200183c:	02001dc9 	.word	0x02001dc9
 2001840:	020081b0 	.word	0x020081b0
 2001844:	020081f4 	.word	0x020081f4
 2001848:	020081d8 	.word	0x020081d8
 200184c:	0200821c 	.word	0x0200821c
 2001850:	02008208 	.word	0x02008208
 2001854:	02008230 	.word	0x02008230

02001858 <platform_tick_handler>:
 2001858:	4b0c      	ldr	r3, [pc, #48]	; (200188c <platform_tick_handler+0x34>)
 200185a:	4a0d      	ldr	r2, [pc, #52]	; (2001890 <platform_tick_handler+0x38>)
 200185c:	6819      	ldr	r1, [r3, #0]
 200185e:	4b0d      	ldr	r3, [pc, #52]	; (2001894 <platform_tick_handler+0x3c>)
 2001860:	3101      	adds	r1, #1
 2001862:	fbb2 f2f1 	udiv	r2, r2, r1
 2001866:	6f19      	ldr	r1, [r3, #112]	; 0x70
 2001868:	6e59      	ldr	r1, [r3, #100]	; 0x64
 200186a:	4291      	cmp	r1, r2
 200186c:	d00c      	beq.n	2001888 <platform_tick_handler+0x30>
 200186e:	2100      	movs	r1, #0
 2001870:	66d9      	str	r1, [r3, #108]	; 0x6c
 2001872:	665a      	str	r2, [r3, #100]	; 0x64
 2001874:	6eda      	ldr	r2, [r3, #108]	; 0x6c
 2001876:	66da      	str	r2, [r3, #108]	; 0x6c
 2001878:	6eda      	ldr	r2, [r3, #108]	; 0x6c
 200187a:	f042 0202 	orr.w	r2, r2, #2
 200187e:	66da      	str	r2, [r3, #108]	; 0x6c
 2001880:	6eda      	ldr	r2, [r3, #108]	; 0x6c
 2001882:	f042 0201 	orr.w	r2, r2, #1
 2001886:	66da      	str	r2, [r3, #108]	; 0x6c
 2001888:	4770      	bx	lr
 200188a:	bf00      	nop
 200188c:	02001228 	.word	0x02001228
 2001890:	017d7840 	.word	0x017d7840
 2001894:	40032000 	.word	0x40032000

02001898 <platform_get_cycle>:
 2001898:	4b1a      	ldr	r3, [pc, #104]	; (2001904 <platform_get_cycle+0x6c>)
 200189a:	4a1b      	ldr	r2, [pc, #108]	; (2001908 <platform_get_cycle+0x70>)
 200189c:	b4f0      	push	{r4, r5, r6, r7}
 200189e:	685e      	ldr	r6, [r3, #4]
 20018a0:	681c      	ldr	r4, [r3, #0]
 20018a2:	6ed3      	ldr	r3, [r2, #108]	; 0x6c
 20018a4:	f043 0308 	orr.w	r3, r3, #8
 20018a8:	66d3      	str	r3, [r2, #108]	; 0x6c
 20018aa:	6ed3      	ldr	r3, [r2, #108]	; 0x6c
 20018ac:	071d      	lsls	r5, r3, #28
 20018ae:	d4fc      	bmi.n	20018aa <platform_get_cycle+0x12>
 20018b0:	6e95      	ldr	r5, [r2, #104]	; 0x68
 20018b2:	6f53      	ldr	r3, [r2, #116]	; 0x74
 20018b4:	2b01      	cmp	r3, #1
 20018b6:	d018      	beq.n	20018ea <platform_get_cycle+0x52>
 20018b8:	4a14      	ldr	r2, [pc, #80]	; (200190c <platform_get_cycle+0x74>)
 20018ba:	4b15      	ldr	r3, [pc, #84]	; (2001910 <platform_get_cycle+0x78>)
 20018bc:	fba2 2505 	umull	r2, r5, r2, r5
 20018c0:	4a14      	ldr	r2, [pc, #80]	; (2001914 <platform_get_cycle+0x7c>)
 20018c2:	681b      	ldr	r3, [r3, #0]
 20018c4:	6817      	ldr	r7, [r2, #0]
 20018c6:	4a14      	ldr	r2, [pc, #80]	; (2001918 <platform_get_cycle+0x80>)
 20018c8:	08ed      	lsrs	r5, r5, #3
 20018ca:	fba2 2303 	umull	r2, r3, r2, r3
 20018ce:	fba7 4204 	umull	r4, r2, r7, r4
 20018d2:	0c9b      	lsrs	r3, r3, #18
 20018d4:	fb05 7313 	mls	r3, r5, r3, r7
 20018d8:	fb07 2606 	mla	r6, r7, r6, r2
 20018dc:	191b      	adds	r3, r3, r4
 20018de:	f146 0600 	adc.w	r6, r6, #0
 20018e2:	6006      	str	r6, [r0, #0]
 20018e4:	600b      	str	r3, [r1, #0]
 20018e6:	bcf0      	pop	{r4, r5, r6, r7}
 20018e8:	4770      	bx	lr
 20018ea:	6ed3      	ldr	r3, [r2, #108]	; 0x6c
 20018ec:	f043 0308 	orr.w	r3, r3, #8
 20018f0:	66d3      	str	r3, [r2, #108]	; 0x6c
 20018f2:	4a05      	ldr	r2, [pc, #20]	; (2001908 <platform_get_cycle+0x70>)
 20018f4:	6ed3      	ldr	r3, [r2, #108]	; 0x6c
 20018f6:	071b      	lsls	r3, r3, #28
 20018f8:	d4fc      	bmi.n	20018f4 <platform_get_cycle+0x5c>
 20018fa:	3401      	adds	r4, #1
 20018fc:	6e95      	ldr	r5, [r2, #104]	; 0x68
 20018fe:	f146 0600 	adc.w	r6, r6, #0
 2001902:	e7d9      	b.n	20018b8 <platform_get_cycle+0x20>
 2001904:	020011a8 	.word	0x020011a8
 2001908:	40032000 	.word	0x40032000
 200190c:	51eb851f 	.word	0x51eb851f
 2001910:	02001240 	.word	0x02001240
 2001914:	020011b4 	.word	0x020011b4
 2001918:	431bde83 	.word	0x431bde83

0200191c <os_timer_init>:
 200191c:	b530      	push	{r4, r5, lr}
 200191e:	4b1d      	ldr	r3, [pc, #116]	; (2001994 <os_timer_init+0x78>)
 2001920:	b083      	sub	sp, #12
 2001922:	681b      	ldr	r3, [r3, #0]
 2001924:	1c5a      	adds	r2, r3, #1
 2001926:	d02b      	beq.n	2001980 <os_timer_init+0x64>
 2001928:	4a1b      	ldr	r2, [pc, #108]	; (2001998 <os_timer_init+0x7c>)
 200192a:	3301      	adds	r3, #1
 200192c:	6812      	ldr	r2, [r2, #0]
 200192e:	2000      	movs	r0, #0
 2001930:	fbb2 f2f3 	udiv	r2, r2, r3
 2001934:	2100      	movs	r1, #0
 2001936:	4d19      	ldr	r5, [pc, #100]	; (200199c <os_timer_init+0x80>)
 2001938:	4c19      	ldr	r4, [pc, #100]	; (20019a0 <os_timer_init+0x84>)
 200193a:	fbb5 f5f3 	udiv	r5, r5, r3
 200193e:	4b19      	ldr	r3, [pc, #100]	; (20019a4 <os_timer_init+0x88>)
 2001940:	e9c4 0100 	strd	r0, r1, [r4]
 2001944:	601a      	str	r2, [r3, #0]
 2001946:	2200      	movs	r2, #0
 2001948:	2102      	movs	r1, #2
 200194a:	4c17      	ldr	r4, [pc, #92]	; (20019a8 <os_timer_init+0x8c>)
 200194c:	4b17      	ldr	r3, [pc, #92]	; (20019ac <os_timer_init+0x90>)
 200194e:	66e2      	str	r2, [r4, #108]	; 0x6c
 2001950:	6665      	str	r5, [r4, #100]	; 0x64
 2001952:	6ee5      	ldr	r5, [r4, #108]	; 0x6c
 2001954:	200c      	movs	r0, #12
 2001956:	430d      	orrs	r5, r1
 2001958:	66e5      	str	r5, [r4, #108]	; 0x6c
 200195a:	6ee5      	ldr	r5, [r4, #108]	; 0x6c
 200195c:	66e5      	str	r5, [r4, #108]	; 0x6c
 200195e:	9200      	str	r2, [sp, #0]
 2001960:	f1fe fcf0 	bl	2200344 <LOS_HwiCreate>
 2001964:	4a12      	ldr	r2, [pc, #72]	; (20019b0 <os_timer_init+0x94>)
 2001966:	4605      	mov	r5, r0
 2001968:	6813      	ldr	r3, [r2, #0]
 200196a:	f443 5380 	orr.w	r3, r3, #4096	; 0x1000
 200196e:	6013      	str	r3, [r2, #0]
 2001970:	b950      	cbnz	r0, 2001988 <os_timer_init+0x6c>
 2001972:	4628      	mov	r0, r5
 2001974:	6ee3      	ldr	r3, [r4, #108]	; 0x6c
 2001976:	f043 0301 	orr.w	r3, r3, #1
 200197a:	66e3      	str	r3, [r4, #108]	; 0x6c
 200197c:	b003      	add	sp, #12
 200197e:	bd30      	pop	{r4, r5, pc}
 2001980:	4d0c      	ldr	r5, [pc, #48]	; (20019b4 <os_timer_init+0x98>)
 2001982:	4628      	mov	r0, r5
 2001984:	b003      	add	sp, #12
 2001986:	bd30      	pop	{r4, r5, pc}
 2001988:	480b      	ldr	r0, [pc, #44]	; (20019b8 <os_timer_init+0x9c>)
 200198a:	f203 fab3 	bl	2204ef4 <printf>
 200198e:	4628      	mov	r0, r5
 2001990:	b003      	add	sp, #12
 2001992:	bd30      	pop	{r4, r5, pc}
 2001994:	02001228 	.word	0x02001228
 2001998:	02001240 	.word	0x02001240
 200199c:	017d7840 	.word	0x017d7840
 20019a0:	020011a8 	.word	0x020011a8
 20019a4:	020011b4 	.word	0x020011b4
 20019a8:	40032000 	.word	0x40032000
 20019ac:	02201f31 	.word	0x02201f31
 20019b0:	0200c414 	.word	0x0200c414
 20019b4:	02000400 	.word	0x02000400
 20019b8:	02008248 	.word	0x02008248

020019bc <osTrackhook>:
 20019bc:	e92d 43f8 	stmdb	sp!, {r3, r4, r5, r6, r7, r8, r9, lr}
 20019c0:	4c2b      	ldr	r4, [pc, #172]	; (2001a70 <osTrackhook+0xb4>)
 20019c2:	f8b4 c000 	ldrh.w	ip, [r4]
 20019c6:	ea10 0f0c 	tst.w	r0, ip
 20019ca:	d101      	bne.n	20019d0 <osTrackhook+0x14>
 20019cc:	e8bd 83f8 	ldmia.w	sp!, {r3, r4, r5, r6, r7, r8, r9, pc}
 20019d0:	460f      	mov	r7, r1
 20019d2:	4604      	mov	r4, r0
 20019d4:	4616      	mov	r6, r2
 20019d6:	461d      	mov	r5, r3
 20019d8:	f1fe fb42 	bl	2200060 <LOS_IntLock>
 20019dc:	f8df 9094 	ldr.w	r9, [pc, #148]	; 2001a74 <osTrackhook+0xb8>
 20019e0:	4680      	mov	r8, r0
 20019e2:	f8d9 2000 	ldr.w	r2, [r9]
 20019e6:	f8b2 c000 	ldrh.w	ip, [r2]
 20019ea:	6853      	ldr	r3, [r2, #4]
 20019ec:	ea4f 110c 	mov.w	r1, ip, lsl #4
 20019f0:	eb03 1e0c 	add.w	lr, r3, ip, lsl #4
 20019f4:	525c      	strh	r4, [r3, r1]
 20019f6:	f8ae 7002 	strh.w	r7, [lr, #2]
 20019fa:	b1e5      	cbz	r5, 2001a36 <osTrackhook+0x7a>
 20019fc:	e9ce 6501 	strd	r6, r5, [lr, #4]
 2001a00:	4b1d      	ldr	r3, [pc, #116]	; (2001a78 <osTrackhook+0xbc>)
 2001a02:	681b      	ldr	r3, [r3, #0]
 2001a04:	b33b      	cbz	r3, 2001a56 <osTrackhook+0x9a>
 2001a06:	f10e 000c 	add.w	r0, lr, #12
 2001a0a:	4798      	blx	r3
 2001a0c:	f8d9 2000 	ldr.w	r2, [r9]
 2001a10:	f8b2 c000 	ldrh.w	ip, [r2]
 2001a14:	8853      	ldrh	r3, [r2, #2]
 2001a16:	f10c 0c01 	add.w	ip, ip, #1
 2001a1a:	fa1f fc8c 	uxth.w	ip, ip
 2001a1e:	4563      	cmp	r3, ip
 2001a20:	bf98      	it	ls
 2001a22:	2300      	movls	r3, #0
 2001a24:	4640      	mov	r0, r8
 2001a26:	f8a2 c000 	strh.w	ip, [r2]
 2001a2a:	bf98      	it	ls
 2001a2c:	8013      	strhls	r3, [r2, #0]
 2001a2e:	e8bd 43f8 	ldmia.w	sp!, {r3, r4, r5, r6, r7, r8, r9, lr}
 2001a32:	f1fe bb25 	b.w	2200080 <LOS_IntRestore>
 2001a36:	0663      	lsls	r3, r4, #25
 2001a38:	d5e0      	bpl.n	20019fc <osTrackhook+0x40>
 2001a3a:	2158      	movs	r1, #88	; 0x58
 2001a3c:	4b0f      	ldr	r3, [pc, #60]	; (2001a7c <osTrackhook+0xc0>)
 2001a3e:	fb07 f101 	mul.w	r1, r7, r1
 2001a42:	681f      	ldr	r7, [r3, #0]
 2001a44:	587b      	ldr	r3, [r7, r1]
 2001a46:	440f      	add	r7, r1
 2001a48:	6bdb      	ldr	r3, [r3, #60]	; 0x3c
 2001a4a:	f8ce 3004 	str.w	r3, [lr, #4]
 2001a4e:	697b      	ldr	r3, [r7, #20]
 2001a50:	f8ce 3008 	str.w	r3, [lr, #8]
 2001a54:	e7d4      	b.n	2001a00 <osTrackhook+0x44>
 2001a56:	4b0a      	ldr	r3, [pc, #40]	; (2001a80 <osTrackhook+0xc4>)
 2001a58:	6819      	ldr	r1, [r3, #0]
 2001a5a:	4b0a      	ldr	r3, [pc, #40]	; (2001a84 <osTrackhook+0xc8>)
 2001a5c:	3101      	adds	r1, #1
 2001a5e:	fbb3 f3f1 	udiv	r3, r3, r1
 2001a62:	4909      	ldr	r1, [pc, #36]	; (2001a88 <osTrackhook+0xcc>)
 2001a64:	6809      	ldr	r1, [r1, #0]
 2001a66:	fb01 f303 	mul.w	r3, r1, r3
 2001a6a:	f8ce 300c 	str.w	r3, [lr, #12]
 2001a6e:	e7d1      	b.n	2001a14 <osTrackhook+0x58>
 2001a70:	0200c40c 	.word	0x0200c40c
 2001a74:	0200c408 	.word	0x0200c408
 2001a78:	0200c404 	.word	0x0200c404
 2001a7c:	02001174 	.word	0x02001174
 2001a80:	02001228 	.word	0x02001228
 2001a84:	000f4240 	.word	0x000f4240
 2001a88:	020011a8 	.word	0x020011a8

02001a8c <LOS_CurUsRegHook>:
 2001a8c:	b510      	push	{r4, lr}
 2001a8e:	4604      	mov	r4, r0
 2001a90:	f1fe fae6 	bl	2200060 <LOS_IntLock>
 2001a94:	4b02      	ldr	r3, [pc, #8]	; (2001aa0 <LOS_CurUsRegHook+0x14>)
 2001a96:	601c      	str	r4, [r3, #0]
 2001a98:	f1fe faf2 	bl	2200080 <LOS_IntRestore>
 2001a9c:	2000      	movs	r0, #0
 2001a9e:	bd10      	pop	{r4, pc}
 2001aa0:	0200c404 	.word	0x0200c404

02001aa4 <LOS_TrackInit>:
 2001aa4:	f5b0 7f7a 	cmp.w	r0, #1000	; 0x3e8
 2001aa8:	d829      	bhi.n	2001afe <LOS_TrackInit+0x5a>
 2001aaa:	e92d 43f8 	stmdb	sp!, {r3, r4, r5, r6, r7, r8, r9, lr}
 2001aae:	4604      	mov	r4, r0
 2001ab0:	b310      	cbz	r0, 2001af8 <LOS_TrackInit+0x54>
 2001ab2:	f1fe fad5 	bl	2200060 <LOS_IntLock>
 2001ab6:	f8df 8060 	ldr.w	r8, [pc, #96]	; 2001b18 <LOS_TrackInit+0x74>
 2001aba:	4681      	mov	r9, r0
 2001abc:	f8d8 5000 	ldr.w	r5, [r8]
 2001ac0:	b9fd      	cbnz	r5, 2001b02 <LOS_TrackInit+0x5e>
 2001ac2:	4b16      	ldr	r3, [pc, #88]	; (2001b1c <LOS_TrackInit+0x78>)
 2001ac4:	0127      	lsls	r7, r4, #4
 2001ac6:	3708      	adds	r7, #8
 2001ac8:	4639      	mov	r1, r7
 2001aca:	6818      	ldr	r0, [r3, #0]
 2001acc:	f201 ff74 	bl	22039b8 <LOS_MemAlloc>
 2001ad0:	4606      	mov	r6, r0
 2001ad2:	b1d8      	cbz	r0, 2001b0c <LOS_TrackInit+0x68>
 2001ad4:	463b      	mov	r3, r7
 2001ad6:	4639      	mov	r1, r7
 2001ad8:	462a      	mov	r2, r5
 2001ada:	f206 fb09 	bl	22080f0 <memset_s>
 2001ade:	f106 0308 	add.w	r3, r6, #8
 2001ae2:	4648      	mov	r0, r9
 2001ae4:	8074      	strh	r4, [r6, #2]
 2001ae6:	8035      	strh	r5, [r6, #0]
 2001ae8:	6073      	str	r3, [r6, #4]
 2001aea:	f8c8 6000 	str.w	r6, [r8]
 2001aee:	f1fe fac7 	bl	2200080 <LOS_IntRestore>
 2001af2:	4628      	mov	r0, r5
 2001af4:	e8bd 83f8 	ldmia.w	sp!, {r3, r4, r5, r6, r7, r8, r9, pc}
 2001af8:	4809      	ldr	r0, [pc, #36]	; (2001b20 <LOS_TrackInit+0x7c>)
 2001afa:	e8bd 83f8 	ldmia.w	sp!, {r3, r4, r5, r6, r7, r8, r9, pc}
 2001afe:	4809      	ldr	r0, [pc, #36]	; (2001b24 <LOS_TrackInit+0x80>)
 2001b00:	4770      	bx	lr
 2001b02:	f1fe fabd 	bl	2200080 <LOS_IntRestore>
 2001b06:	4808      	ldr	r0, [pc, #32]	; (2001b28 <LOS_TrackInit+0x84>)
 2001b08:	e8bd 83f8 	ldmia.w	sp!, {r3, r4, r5, r6, r7, r8, r9, pc}
 2001b0c:	4648      	mov	r0, r9
 2001b0e:	f1fe fab7 	bl	2200080 <LOS_IntRestore>
 2001b12:	4806      	ldr	r0, [pc, #24]	; (2001b2c <LOS_TrackInit+0x88>)
 2001b14:	e7ee      	b.n	2001af4 <LOS_TrackInit+0x50>
 2001b16:	bf00      	nop
 2001b18:	0200c408 	.word	0x0200c408
 2001b1c:	02001248 	.word	0x02001248
 2001b20:	02001401 	.word	0x02001401
 2001b24:	02001400 	.word	0x02001400
 2001b28:	02001406 	.word	0x02001406
 2001b2c:	02001402 	.word	0x02001402

02001b30 <LOS_TrackStart>:
 2001b30:	b510      	push	{r4, lr}
 2001b32:	4604      	mov	r4, r0
 2001b34:	f1fe fa94 	bl	2200060 <LOS_IntLock>
 2001b38:	4b06      	ldr	r3, [pc, #24]	; (2001b54 <LOS_TrackStart+0x24>)
 2001b3a:	681b      	ldr	r3, [r3, #0]
 2001b3c:	b12b      	cbz	r3, 2001b4a <LOS_TrackStart+0x1a>
 2001b3e:	4b06      	ldr	r3, [pc, #24]	; (2001b58 <LOS_TrackStart+0x28>)
 2001b40:	801c      	strh	r4, [r3, #0]
 2001b42:	f1fe fa9d 	bl	2200080 <LOS_IntRestore>
 2001b46:	2000      	movs	r0, #0
 2001b48:	bd10      	pop	{r4, pc}
 2001b4a:	f1fe fa99 	bl	2200080 <LOS_IntRestore>
 2001b4e:	4803      	ldr	r0, [pc, #12]	; (2001b5c <LOS_TrackStart+0x2c>)
 2001b50:	bd10      	pop	{r4, pc}
 2001b52:	bf00      	nop
 2001b54:	0200c408 	.word	0x0200c408
 2001b58:	0200c40c 	.word	0x0200c40c
 2001b5c:	02001405 	.word	0x02001405

02001b60 <LOS_TrackStop>:
 2001b60:	b538      	push	{r3, r4, r5, lr}
 2001b62:	4c05      	ldr	r4, [pc, #20]	; (2001b78 <LOS_TrackStop+0x18>)
 2001b64:	8825      	ldrh	r5, [r4, #0]
 2001b66:	f1fe fa7b 	bl	2200060 <LOS_IntLock>
 2001b6a:	2300      	movs	r3, #0
 2001b6c:	8023      	strh	r3, [r4, #0]
 2001b6e:	f1fe fa87 	bl	2200080 <LOS_IntRestore>
 2001b72:	4628      	mov	r0, r5
 2001b74:	bd38      	pop	{r3, r4, r5, pc}
 2001b76:	bf00      	nop
 2001b78:	0200c40c 	.word	0x0200c40c

02001b7c <LOS_TrackInfoGet>:
 2001b7c:	b180      	cbz	r0, 2001ba0 <LOS_TrackInfoGet+0x24>
 2001b7e:	b510      	push	{r4, lr}
 2001b80:	4604      	mov	r4, r0
 2001b82:	f1fe fa6d 	bl	2200060 <LOS_IntLock>
 2001b86:	4b09      	ldr	r3, [pc, #36]	; (2001bac <LOS_TrackInfoGet+0x30>)
 2001b88:	681b      	ldr	r3, [r3, #0]
 2001b8a:	b15b      	cbz	r3, 2001ba4 <LOS_TrackInfoGet+0x28>
 2001b8c:	8819      	ldrh	r1, [r3, #0]
 2001b8e:	885a      	ldrh	r2, [r3, #2]
 2001b90:	685b      	ldr	r3, [r3, #4]
 2001b92:	8021      	strh	r1, [r4, #0]
 2001b94:	8062      	strh	r2, [r4, #2]
 2001b96:	6063      	str	r3, [r4, #4]
 2001b98:	f1fe fa72 	bl	2200080 <LOS_IntRestore>
 2001b9c:	2000      	movs	r0, #0
 2001b9e:	bd10      	pop	{r4, pc}
 2001ba0:	4803      	ldr	r0, [pc, #12]	; (2001bb0 <LOS_TrackInfoGet+0x34>)
 2001ba2:	4770      	bx	lr
 2001ba4:	f1fe fa6c 	bl	2200080 <LOS_IntRestore>
 2001ba8:	4802      	ldr	r0, [pc, #8]	; (2001bb4 <LOS_TrackInfoGet+0x38>)
 2001baa:	bd10      	pop	{r4, pc}
 2001bac:	0200c408 	.word	0x0200c408
 2001bb0:	02001404 	.word	0x02001404
 2001bb4:	02001405 	.word	0x02001405

02001bb8 <LOS_TrackItemGetById>:
 2001bb8:	b1f1      	cbz	r1, 2001bf8 <LOS_TrackItemGetById+0x40>
 2001bba:	b570      	push	{r4, r5, r6, lr}
 2001bbc:	4605      	mov	r5, r0
 2001bbe:	460c      	mov	r4, r1
 2001bc0:	f1fe fa4e 	bl	2200060 <LOS_IntLock>
 2001bc4:	4b11      	ldr	r3, [pc, #68]	; (2001c0c <LOS_TrackItemGetById+0x54>)
 2001bc6:	4606      	mov	r6, r0
 2001bc8:	681a      	ldr	r2, [r3, #0]
 2001bca:	b1da      	cbz	r2, 2001c04 <LOS_TrackItemGetById+0x4c>
 2001bcc:	8853      	ldrh	r3, [r2, #2]
 2001bce:	42ab      	cmp	r3, r5
 2001bd0:	d914      	bls.n	2001bfc <LOS_TrackItemGetById+0x44>
 2001bd2:	2310      	movs	r3, #16
 2001bd4:	6852      	ldr	r2, [r2, #4]
 2001bd6:	4620      	mov	r0, r4
 2001bd8:	4619      	mov	r1, r3
 2001bda:	eb02 1205 	add.w	r2, r2, r5, lsl #4
 2001bde:	f206 fa1d 	bl	220801c <memcpy_s>
 2001be2:	4604      	mov	r4, r0
 2001be4:	4630      	mov	r0, r6
 2001be6:	b91c      	cbnz	r4, 2001bf0 <LOS_TrackItemGetById+0x38>
 2001be8:	f1fe fa4a 	bl	2200080 <LOS_IntRestore>
 2001bec:	4620      	mov	r0, r4
 2001bee:	bd70      	pop	{r4, r5, r6, pc}
 2001bf0:	f1fe fa46 	bl	2200080 <LOS_IntRestore>
 2001bf4:	2001      	movs	r0, #1
 2001bf6:	bd70      	pop	{r4, r5, r6, pc}
 2001bf8:	4805      	ldr	r0, [pc, #20]	; (2001c10 <LOS_TrackItemGetById+0x58>)
 2001bfa:	4770      	bx	lr
 2001bfc:	f1fe fa40 	bl	2200080 <LOS_IntRestore>
 2001c00:	4804      	ldr	r0, [pc, #16]	; (2001c14 <LOS_TrackItemGetById+0x5c>)
 2001c02:	bd70      	pop	{r4, r5, r6, pc}
 2001c04:	f1fe fa3c 	bl	2200080 <LOS_IntRestore>
 2001c08:	4803      	ldr	r0, [pc, #12]	; (2001c18 <LOS_TrackItemGetById+0x60>)
 2001c0a:	bd70      	pop	{r4, r5, r6, pc}
 2001c0c:	0200c408 	.word	0x0200c408
 2001c10:	02001404 	.word	0x02001404
 2001c14:	02001403 	.word	0x02001403
 2001c18:	02001405 	.word	0x02001405

02001c1c <LOS_TrackDelete>:
 2001c1c:	b570      	push	{r4, r5, r6, lr}
 2001c1e:	4e0d      	ldr	r6, [pc, #52]	; (2001c54 <LOS_TrackDelete+0x38>)
 2001c20:	f1fe fa1e 	bl	2200060 <LOS_IntLock>
 2001c24:	6831      	ldr	r1, [r6, #0]
 2001c26:	b179      	cbz	r1, 2001c48 <LOS_TrackDelete+0x2c>
 2001c28:	2200      	movs	r2, #0
 2001c2a:	4605      	mov	r5, r0
 2001c2c:	480a      	ldr	r0, [pc, #40]	; (2001c58 <LOS_TrackDelete+0x3c>)
 2001c2e:	4b0b      	ldr	r3, [pc, #44]	; (2001c5c <LOS_TrackDelete+0x40>)
 2001c30:	6800      	ldr	r0, [r0, #0]
 2001c32:	801a      	strh	r2, [r3, #0]
 2001c34:	f201 ff08 	bl	2203a48 <LOS_MemFree>
 2001c38:	4604      	mov	r4, r0
 2001c3a:	4628      	mov	r0, r5
 2001c3c:	b904      	cbnz	r4, 2001c40 <LOS_TrackDelete+0x24>
 2001c3e:	6034      	str	r4, [r6, #0]
 2001c40:	f1fe fa1e 	bl	2200080 <LOS_IntRestore>
 2001c44:	4620      	mov	r0, r4
 2001c46:	bd70      	pop	{r4, r5, r6, pc}
 2001c48:	4c05      	ldr	r4, [pc, #20]	; (2001c60 <LOS_TrackDelete+0x44>)
 2001c4a:	f1fe fa19 	bl	2200080 <LOS_IntRestore>
 2001c4e:	4620      	mov	r0, r4
 2001c50:	bd70      	pop	{r4, r5, r6, pc}
 2001c52:	bf00      	nop
 2001c54:	0200c408 	.word	0x0200c408
 2001c58:	02001248 	.word	0x02001248
 2001c5c:	0200c40c 	.word	0x0200c40c
 2001c60:	02001405 	.word	0x02001405

02001c64 <LOS_TrackRegHook>:
 2001c64:	b510      	push	{r4, lr}
 2001c66:	4604      	mov	r4, r0
 2001c68:	f7ff ffd8 	bl	2001c1c <LOS_TrackDelete>
 2001c6c:	f1fe f9f8 	bl	2200060 <LOS_IntLock>
 2001c70:	4b02      	ldr	r3, [pc, #8]	; (2001c7c <LOS_TrackRegHook+0x18>)
 2001c72:	601c      	str	r4, [r3, #0]
 2001c74:	f1fe fa04 	bl	2200080 <LOS_IntRestore>
 2001c78:	2000      	movs	r0, #0
 2001c7a:	bd10      	pop	{r4, pc}
 2001c7c:	020011fc 	.word	0x020011fc

02001c80 <uart_puts>:
 2001c80:	b570      	push	{r4, r5, r6, lr}
 2001c82:	4605      	mov	r5, r0
 2001c84:	7800      	ldrb	r0, [r0, #0]
 2001c86:	460e      	mov	r6, r1
 2001c88:	b1c0      	cbz	r0, 2001cbc <uart_puts+0x3c>
 2001c8a:	b1b9      	cbz	r1, 2001cbc <uart_puts+0x3c>
 2001c8c:	1c6c      	adds	r4, r5, #1
 2001c8e:	440d      	add	r5, r1
 2001c90:	e007      	b.n	2001ca2 <uart_puts+0x22>
 2001c92:	f002 fc13 	bl	20044bc <serial_putc>
 2001c96:	7820      	ldrb	r0, [r4, #0]
 2001c98:	1c63      	adds	r3, r4, #1
 2001c9a:	b178      	cbz	r0, 2001cbc <uart_puts+0x3c>
 2001c9c:	42a5      	cmp	r5, r4
 2001c9e:	d00d      	beq.n	2001cbc <uart_puts+0x3c>
 2001ca0:	461c      	mov	r4, r3
 2001ca2:	280a      	cmp	r0, #10
 2001ca4:	d1f5      	bne.n	2001c92 <uart_puts+0x12>
 2001ca6:	200d      	movs	r0, #13
 2001ca8:	f002 fc08 	bl	20044bc <serial_putc>
 2001cac:	f814 0c01 	ldrb.w	r0, [r4, #-1]
 2001cb0:	f002 fc04 	bl	20044bc <serial_putc>
 2001cb4:	7820      	ldrb	r0, [r4, #0]
 2001cb6:	1c63      	adds	r3, r4, #1
 2001cb8:	2800      	cmp	r0, #0
 2001cba:	d1ef      	bne.n	2001c9c <uart_puts+0x1c>
 2001cbc:	4630      	mov	r0, r6
 2001cbe:	bd70      	pop	{r4, r5, r6, pc}

02001cc0 <getchar>:
 2001cc0:	f002 bc04 	b.w	20044cc <serial_getc>

02001cc4 <putchar>:
 2001cc4:	b510      	push	{r4, lr}
 2001cc6:	4604      	mov	r4, r0
 2001cc8:	b2c0      	uxtb	r0, r0
 2001cca:	f002 fbf7 	bl	20044bc <serial_putc>
 2001cce:	4620      	mov	r0, r4
 2001cd0:	bd10      	pop	{r4, pc}
 2001cd2:	bf00      	nop

02001cd4 <app_init>:
 2001cd4:	b5f8      	push	{r3, r4, r5, r6, r7, lr}
 2001cd6:	2100      	movs	r1, #0
 2001cd8:	2004      	movs	r0, #4
 2001cda:	f20d f975 	bl	220efc8 <uapi_event_init>
 2001cde:	f000 fbe1 	bl	20024a4 <uapi_flash_init>
 2001ce2:	f003 fc2f 	bl	2005544 <usr_remap_init>
 2001ce6:	f04f 7c01 	mov.w	ip, #33816576	; 0x2040000
 2001cea:	4e0a      	ldr	r6, [pc, #40]	; (2001d14 <app_init+0x40>)
 2001cec:	4d0a      	ldr	r5, [pc, #40]	; (2001d18 <app_init+0x44>)
 2001cee:	4c0b      	ldr	r4, [pc, #44]	; (2001d1c <app_init+0x48>)
 2001cf0:	480b      	ldr	r0, [pc, #44]	; (2001d20 <app_init+0x4c>)
 2001cf2:	490c      	ldr	r1, [pc, #48]	; (2001d24 <app_init+0x50>)
 2001cf4:	4a0c      	ldr	r2, [pc, #48]	; (2001d28 <app_init+0x54>)
 2001cf6:	4b0d      	ldr	r3, [pc, #52]	; (2001d2c <app_init+0x58>)
 2001cf8:	f8dc 7000 	ldr.w	r7, [ip]
 2001cfc:	6836      	ldr	r6, [r6, #0]
 2001cfe:	682d      	ldr	r5, [r5, #0]
 2001d00:	6824      	ldr	r4, [r4, #0]
 2001d02:	6800      	ldr	r0, [r0, #0]
 2001d04:	6809      	ldr	r1, [r1, #0]
 2001d06:	6812      	ldr	r2, [r2, #0]
 2001d08:	681b      	ldr	r3, [r3, #0]
 2001d0a:	e8bd 40f8 	ldmia.w	sp!, {r3, r4, r5, r6, r7, lr}
 2001d0e:	f059 bb35 	b.w	205b37c <uapi_app_init>
 2001d12:	bf00      	nop
 2001d14:	02041000 	.word	0x02041000
 2001d18:	02042000 	.word	0x02042000
 2001d1c:	02043000 	.word	0x02043000
 2001d20:	02044000 	.word	0x02044000
 2001d24:	02045000 	.word	0x02045000
 2001d28:	02046000 	.word	0x02046000
 2001d2c:	02047000 	.word	0x02047000

02001d30 <board_resource_init>:
 2001d30:	f004 bbaa 	b.w	2006488 <hal_sectors_ram_patch>

02001d34 <main>:
 2001d34:	b510      	push	{r4, lr}
 2001d36:	2001      	movs	r0, #1
 2001d38:	f20a f9a0 	bl	220c07c <uapi_uart_set_clock>
 2001d3c:	f006 f810 	bl	2007d60 <app_io_init>
 2001d40:	f44f 31e1 	mov.w	r1, #115200	; 0x1c200
 2001d44:	4817      	ldr	r0, [pc, #92]	; (2001da4 <main+0x70>)
 2001d46:	f002 fb65 	bl	2004414 <serial_init>
 2001d4a:	f44f 31e1 	mov.w	r1, #115200	; 0x1c200
 2001d4e:	4816      	ldr	r0, [pc, #88]	; (2001da8 <main+0x74>)
 2001d50:	f002 fb60 	bl	2004414 <serial_init>
 2001d54:	4815      	ldr	r0, [pc, #84]	; (2001dac <main+0x78>)
 2001d56:	f202 fa85 	bl	2204264 <register_log_hook>
 2001d5a:	f7ff ffe9 	bl	2001d30 <board_resource_init>
 2001d5e:	4914      	ldr	r1, [pc, #80]	; (2001db0 <main+0x7c>)
 2001d60:	4814      	ldr	r0, [pc, #80]	; (2001db4 <main+0x80>)
 2001d62:	f203 f8c7 	bl	2204ef4 <printf>
 2001d66:	f002 ffe7 	bl	2004d38 <patch_init>
 2001d6a:	f7ff fccf 	bl	200170c <board_config>
 2001d6e:	f000 f84b 	bl	2001e08 <track_config>
 2001d72:	f7ff fceb 	bl	200174c <LOS_KernelInit>
 2001d76:	4604      	mov	r4, r0
 2001d78:	4a0f      	ldr	r2, [pc, #60]	; (2001db8 <main+0x84>)
 2001d7a:	4b10      	ldr	r3, [pc, #64]	; (2001dbc <main+0x88>)
 2001d7c:	6812      	ldr	r2, [r2, #0]
 2001d7e:	200a      	movs	r0, #10
 2001d80:	601a      	str	r2, [r3, #0]
 2001d82:	f203 faf7 	bl	2205374 <init_default_workqueue>
 2001d86:	f7ff ffa5 	bl	2001cd4 <app_init>
 2001d8a:	f20c fd49 	bl	220e820 <uapi_low_accuracy_time_counter_enable>
 2001d8e:	480c      	ldr	r0, [pc, #48]	; (2001dc0 <main+0x8c>)
 2001d90:	f203 f8c4 	bl	2204f1c <LOS_RunStopCallBackRegister>
 2001d94:	b914      	cbnz	r4, 2001d9c <main+0x68>
 2001d96:	f7ff fca3 	bl	20016e0 <LOS_Start>
 2001d9a:	e7fe      	b.n	2001d9a <main+0x66>
 2001d9c:	4809      	ldr	r0, [pc, #36]	; (2001dc4 <main+0x90>)
 2001d9e:	f203 f8a9 	bl	2204ef4 <printf>
 2001da2:	e7fa      	b.n	2001d9a <main+0x66>
 2001da4:	4003c000 	.word	0x4003c000
 2001da8:	4003d000 	.word	0x4003d000
 2001dac:	02001c81 	.word	0x02001c81
 2001db0:	02008260 	.word	0x02008260
 2001db4:	02008270 	.word	0x02008270
 2001db8:	02001240 	.word	0x02001240
 2001dbc:	020011b0 	.word	0x020011b0
 2001dc0:	02002f21 	.word	0x02002f21
 2001dc4:	02008278 	.word	0x02008278

02001dc8 <task_switch_check_new>:
 2001dc8:	b510      	push	{r4, lr}
 2001dca:	4c05      	ldr	r4, [pc, #20]	; (2001de0 <task_switch_check_new+0x18>)
 2001dcc:	6823      	ldr	r3, [r4, #0]
 2001dce:	3301      	adds	r3, #1
 2001dd0:	6023      	str	r3, [r4, #0]
 2001dd2:	f1ff f877 	bl	2200ec4 <osTaskSwitchCheck>
 2001dd6:	6823      	ldr	r3, [r4, #0]
 2001dd8:	3b01      	subs	r3, #1
 2001dda:	6023      	str	r3, [r4, #0]
 2001ddc:	bd10      	pop	{r4, pc}
 2001dde:	bf00      	nop
 2001de0:	0200c3f8 	.word	0x0200c3f8

02001de4 <err_handle>:
 2001de4:	4b07      	ldr	r3, [pc, #28]	; (2001e04 <err_handle+0x20>)
 2001de6:	4610      	mov	r0, r2
 2001de8:	429a      	cmp	r2, r3
 2001dea:	9900      	ldr	r1, [sp, #0]
 2001dec:	d007      	beq.n	2001dfe <err_handle+0x1a>
 2001dee:	f503 7389 	add.w	r3, r3, #274	; 0x112
 2001df2:	429a      	cmp	r2, r3
 2001df4:	d003      	beq.n	2001dfe <err_handle+0x1a>
 2001df6:	330b      	adds	r3, #11
 2001df8:	429a      	cmp	r2, r3
 2001dfa:	d000      	beq.n	2001dfe <err_handle+0x1a>
 2001dfc:	4770      	bx	lr
 2001dfe:	f1fe b983 	b.w	2200108 <LOS_Panic>
 2001e02:	bf00      	nop
 2001e04:	02000106 	.word	0x02000106

02001e08 <track_config>:
 2001e08:	b508      	push	{r3, lr}
 2001e0a:	4804      	ldr	r0, [pc, #16]	; (2001e1c <track_config+0x14>)
 2001e0c:	f7ff ff2a 	bl	2001c64 <LOS_TrackRegHook>
 2001e10:	e8bd 4008 	ldmia.w	sp!, {r3, lr}
 2001e14:	4802      	ldr	r0, [pc, #8]	; (2001e20 <track_config+0x18>)
 2001e16:	f7ff be39 	b.w	2001a8c <LOS_CurUsRegHook>
 2001e1a:	bf00      	nop
 2001e1c:	020019bd 	.word	0x020019bd
 2001e20:	0220e791 	.word	0x0220e791

02001e24 <flash_protect_timeout>:
 2001e24:	2300      	movs	r3, #0
 2001e26:	b500      	push	{lr}
 2001e28:	b085      	sub	sp, #20
 2001e2a:	4602      	mov	r2, r0
 2001e2c:	e9cd 3301 	strd	r3, r3, [sp, #4]
 2001e30:	9300      	str	r3, [sp, #0]
 2001e32:	200f      	movs	r0, #15
 2001e34:	4907      	ldr	r1, [pc, #28]	; (2001e54 <flash_protect_timeout+0x30>)
 2001e36:	f20d fa37 	bl	220f2a8 <uapi_irq_add_job>
 2001e3a:	4b07      	ldr	r3, [pc, #28]	; (2001e58 <flash_protect_timeout+0x34>)
 2001e3c:	b110      	cbz	r0, 2001e44 <flash_protect_timeout+0x20>
 2001e3e:	7b9a      	ldrb	r2, [r3, #14]
 2001e40:	3201      	adds	r2, #1
 2001e42:	739a      	strb	r2, [r3, #14]
 2001e44:	78da      	ldrb	r2, [r3, #3]
 2001e46:	f36f 12c7 	bfc	r2, #7, #1
 2001e4a:	70da      	strb	r2, [r3, #3]
 2001e4c:	b005      	add	sp, #20
 2001e4e:	f85d fb04 	ldr.w	pc, [sp], #4
 2001e52:	bf00      	nop
 2001e54:	020021a1 	.word	0x020021a1
 2001e58:	0200c3d8 	.word	0x0200c3d8

02001e5c <flash_protect.part.0>:
 2001e5c:	e92d 41f0 	stmdb	sp!, {r4, r5, r6, r7, r8, lr}
 2001e60:	0b00      	lsrs	r0, r0, #12
 2001e62:	4688      	mov	r8, r1
 2001e64:	4617      	mov	r7, r2
 2001e66:	b082      	sub	sp, #8
 2001e68:	2b00      	cmp	r3, #0
 2001e6a:	d03c      	beq.n	2001ee6 <flash_protect.part.0+0x8a>
 2001e6c:	4e3b      	ldr	r6, [pc, #236]	; (2001f5c <flash_protect.part.0+0x100>)
 2001e6e:	8933      	ldrh	r3, [r6, #8]
 2001e70:	f3c3 030c 	ubfx	r3, r3, #0, #13
 2001e74:	4298      	cmp	r0, r3
 2001e76:	d24d      	bcs.n	2001f14 <flash_protect.part.0+0xb8>
 2001e78:	230d      	movs	r3, #13
 2001e7a:	4d39      	ldr	r5, [pc, #228]	; (2001f60 <flash_protect.part.0+0x104>)
 2001e7c:	f855 4023 	ldr.w	r4, [r5, r3, lsl #2]
 2001e80:	f3c4 148c 	ubfx	r4, r4, #6, #13
 2001e84:	42a0      	cmp	r0, r4
 2001e86:	d337      	bcc.n	2001ef8 <flash_protect.part.0+0x9c>
 2001e88:	f815 0023 	ldrb.w	r0, [r5, r3, lsl #2]
 2001e8c:	6833      	ldr	r3, [r6, #0]
 2001e8e:	4639      	mov	r1, r7
 2001e90:	461a      	mov	r2, r3
 2001e92:	f3c3 2316 	ubfx	r3, r3, #8, #23
 2001e96:	3301      	adds	r3, #1
 2001e98:	f363 221e 	bfi	r2, r3, #8, #23
 2001e9c:	f000 003f 	and.w	r0, r0, #63	; 0x3f
 2001ea0:	6032      	str	r2, [r6, #0]
 2001ea2:	f002 fe2d 	bl	2004b00 <spi_flash_set_protect>
 2001ea6:	4605      	mov	r5, r0
 2001ea8:	bb48      	cbnz	r0, 2001efe <flash_protect.part.0+0xa2>
 2001eaa:	8933      	ldrh	r3, [r6, #8]
 2001eac:	f364 030c 	bfi	r3, r4, #0, #13
 2001eb0:	8133      	strh	r3, [r6, #8]
 2001eb2:	f1b8 0f00 	cmp.w	r8, #0
 2001eb6:	d029      	beq.n	2001f0c <flash_protect.part.0+0xb0>
 2001eb8:	f1b8 3fff 	cmp.w	r8, #4294967295	; 0xffffffff
 2001ebc:	d041      	beq.n	2001f42 <flash_protect.part.0+0xe6>
 2001ebe:	6875      	ldr	r5, [r6, #4]
 2001ec0:	462a      	mov	r2, r5
 2001ec2:	2300      	movs	r3, #0
 2001ec4:	4927      	ldr	r1, [pc, #156]	; (2001f64 <flash_protect.part.0+0x108>)
 2001ec6:	4828      	ldr	r0, [pc, #160]	; (2001f68 <flash_protect.part.0+0x10c>)
 2001ec8:	9700      	str	r7, [sp, #0]
 2001eca:	f20d fce9 	bl	220f8a0 <uapi_timer_start>
 2001ece:	4605      	mov	r5, r0
 2001ed0:	bb80      	cbnz	r0, 2001f34 <flash_protect.part.0+0xd8>
 2001ed2:	4628      	mov	r0, r5
 2001ed4:	6833      	ldr	r3, [r6, #0]
 2001ed6:	f043 4300 	orr.w	r3, r3, #2147483648	; 0x80000000
 2001eda:	f043 0340 	orr.w	r3, r3, #64	; 0x40
 2001ede:	6033      	str	r3, [r6, #0]
 2001ee0:	b002      	add	sp, #8
 2001ee2:	e8bd 81f0 	ldmia.w	sp!, {r4, r5, r6, r7, r8, pc}
 2001ee6:	230d      	movs	r3, #13
 2001ee8:	4e1c      	ldr	r6, [pc, #112]	; (2001f5c <flash_protect.part.0+0x100>)
 2001eea:	4d1d      	ldr	r5, [pc, #116]	; (2001f60 <flash_protect.part.0+0x104>)
 2001eec:	f855 4023 	ldr.w	r4, [r5, r3, lsl #2]
 2001ef0:	f3c4 148c 	ubfx	r4, r4, #6, #13
 2001ef4:	42a0      	cmp	r0, r4
 2001ef6:	d2c7      	bcs.n	2001e88 <flash_protect.part.0+0x2c>
 2001ef8:	3b01      	subs	r3, #1
 2001efa:	d2f7      	bcs.n	2001eec <flash_protect.part.0+0x90>
 2001efc:	2504      	movs	r5, #4
 2001efe:	4628      	mov	r0, r5
 2001f00:	7b73      	ldrb	r3, [r6, #13]
 2001f02:	3301      	adds	r3, #1
 2001f04:	7373      	strb	r3, [r6, #13]
 2001f06:	b002      	add	sp, #8
 2001f08:	e8bd 81f0 	ldmia.w	sp!, {r4, r5, r6, r7, r8, pc}
 2001f0c:	4a17      	ldr	r2, [pc, #92]	; (2001f6c <flash_protect.part.0+0x110>)
 2001f0e:	6833      	ldr	r3, [r6, #0]
 2001f10:	421a      	tst	r2, r3
 2001f12:	d104      	bne.n	2001f1e <flash_protect.part.0+0xc2>
 2001f14:	2500      	movs	r5, #0
 2001f16:	4628      	mov	r0, r5
 2001f18:	b002      	add	sp, #8
 2001f1a:	e8bd 81f0 	ldmia.w	sp!, {r4, r5, r6, r7, r8, pc}
 2001f1e:	4812      	ldr	r0, [pc, #72]	; (2001f68 <flash_protect.part.0+0x10c>)
 2001f20:	f20d fd1a 	bl	220f958 <uapi_timer_stop>
 2001f24:	4628      	mov	r0, r5
 2001f26:	78f3      	ldrb	r3, [r6, #3]
 2001f28:	f365 13c7 	bfi	r3, r5, #7, #1
 2001f2c:	70f3      	strb	r3, [r6, #3]
 2001f2e:	b002      	add	sp, #8
 2001f30:	e8bd 81f0 	ldmia.w	sp!, {r4, r5, r6, r7, r8, pc}
 2001f34:	4628      	mov	r0, r5
 2001f36:	7b33      	ldrb	r3, [r6, #12]
 2001f38:	3301      	adds	r3, #1
 2001f3a:	7333      	strb	r3, [r6, #12]
 2001f3c:	b002      	add	sp, #8
 2001f3e:	e8bd 81f0 	ldmia.w	sp!, {r4, r5, r6, r7, r8, pc}
 2001f42:	7833      	ldrb	r3, [r6, #0]
 2001f44:	f013 033f 	ands.w	r3, r3, #63	; 0x3f
 2001f48:	d005      	beq.n	2001f56 <flash_protect.part.0+0xfa>
 2001f4a:	4a09      	ldr	r2, [pc, #36]	; (2001f70 <flash_protect.part.0+0x114>)
 2001f4c:	2b01      	cmp	r3, #1
 2001f4e:	bf08      	it	eq
 2001f50:	4615      	moveq	r5, r2
 2001f52:	6075      	str	r5, [r6, #4]
 2001f54:	e7b4      	b.n	2001ec0 <flash_protect.part.0+0x64>
 2001f56:	f241 7570 	movw	r5, #6000	; 0x1770
 2001f5a:	e7fa      	b.n	2001f52 <flash_protect.part.0+0xf6>
 2001f5c:	0200c3d8 	.word	0x0200c3d8
 2001f60:	020080b8 	.word	0x020080b8
 2001f64:	02001e25 	.word	0x02001e25
 2001f68:	0200c3e8 	.word	0x0200c3e8
 2001f6c:	80000040 	.word	0x80000040
 2001f70:	0036ee80 	.word	0x0036ee80

02001f74 <uapi_flash_write_in.part.0>:
 2001f74:	e92d 41f0 	stmdb	sp!, {r4, r5, r6, r7, r8, lr}
 2001f78:	b082      	sub	sp, #8
 2001f7a:	4605      	mov	r5, r0
 2001f7c:	4688      	mov	r8, r1
 2001f7e:	4617      	mov	r7, r2
 2001f80:	461e      	mov	r6, r3
 2001f82:	f20d f9bd 	bl	220f300 <uapi_is_int_context>
 2001f86:	b370      	cbz	r0, 2001fe6 <uapi_flash_write_in.part.0+0x72>
 2001f88:	2101      	movs	r1, #1
 2001f8a:	200e      	movs	r0, #14
 2001f8c:	f000 fee4 	bl	2002d58 <uapi_lowpower_forbid>
 2001f90:	4b1f      	ldr	r3, [pc, #124]	; (2002010 <uapi_flash_write_in.part.0+0x9c>)
 2001f92:	681b      	ldr	r3, [r3, #0]
 2001f94:	b103      	cbz	r3, 2001f98 <uapi_flash_write_in.part.0+0x24>
 2001f96:	4798      	blx	r3
 2001f98:	4b1e      	ldr	r3, [pc, #120]	; (2002014 <uapi_flash_write_in.part.0+0xa0>)
 2001f9a:	f993 3000 	ldrsb.w	r3, [r3]
 2001f9e:	2b00      	cmp	r3, #0
 2001fa0:	da08      	bge.n	2001fb4 <uapi_flash_write_in.part.0+0x40>
 2001fa2:	2301      	movs	r3, #1
 2001fa4:	f04f 31ff 	mov.w	r1, #4294967295	; 0xffffffff
 2001fa8:	4628      	mov	r0, r5
 2001faa:	461a      	mov	r2, r3
 2001fac:	f7ff ff56 	bl	2001e5c <flash_protect.part.0>
 2001fb0:	4604      	mov	r4, r0
 2001fb2:	bb38      	cbnz	r0, 2002004 <uapi_flash_write_in.part.0+0x90>
 2001fb4:	4643      	mov	r3, r8
 2001fb6:	463a      	mov	r2, r7
 2001fb8:	4629      	mov	r1, r5
 2001fba:	4817      	ldr	r0, [pc, #92]	; (2002018 <uapi_flash_write_in.part.0+0xa4>)
 2001fbc:	9600      	str	r6, [sp, #0]
 2001fbe:	f20a fda3 	bl	220cb08 <flash_write_prv>
 2001fc2:	4b16      	ldr	r3, [pc, #88]	; (200201c <uapi_flash_write_in.part.0+0xa8>)
 2001fc4:	4604      	mov	r4, r0
 2001fc6:	681b      	ldr	r3, [r3, #0]
 2001fc8:	b103      	cbz	r3, 2001fcc <uapi_flash_write_in.part.0+0x58>
 2001fca:	4798      	blx	r3
 2001fcc:	f44f 72fa 	mov.w	r2, #500	; 0x1f4
 2001fd0:	2101      	movs	r1, #1
 2001fd2:	200e      	movs	r0, #14
 2001fd4:	f000 feec 	bl	2002db0 <uapi_lowpower_unforbid>
 2001fd8:	f20d f992 	bl	220f300 <uapi_is_int_context>
 2001fdc:	b150      	cbz	r0, 2001ff4 <uapi_flash_write_in.part.0+0x80>
 2001fde:	4620      	mov	r0, r4
 2001fe0:	b002      	add	sp, #8
 2001fe2:	e8bd 81f0 	ldmia.w	sp!, {r4, r5, r6, r7, r8, pc}
 2001fe6:	4b0c      	ldr	r3, [pc, #48]	; (2002018 <uapi_flash_write_in.part.0+0xa4>)
 2001fe8:	f04f 31ff 	mov.w	r1, #4294967295	; 0xffffffff
 2001fec:	6cd8      	ldr	r0, [r3, #76]	; 0x4c
 2001fee:	f20d fac9 	bl	220f584 <uapi_mux_pend>
 2001ff2:	e7c9      	b.n	2001f88 <uapi_flash_write_in.part.0+0x14>
 2001ff4:	4b08      	ldr	r3, [pc, #32]	; (2002018 <uapi_flash_write_in.part.0+0xa4>)
 2001ff6:	6cd8      	ldr	r0, [r3, #76]	; 0x4c
 2001ff8:	f20d fadc 	bl	220f5b4 <uapi_mux_post>
 2001ffc:	4620      	mov	r0, r4
 2001ffe:	b002      	add	sp, #8
 2002000:	e8bd 81f0 	ldmia.w	sp!, {r4, r5, r6, r7, r8, pc}
 2002004:	4b05      	ldr	r3, [pc, #20]	; (200201c <uapi_flash_write_in.part.0+0xa8>)
 2002006:	681b      	ldr	r3, [r3, #0]
 2002008:	2b00      	cmp	r3, #0
 200200a:	d1de      	bne.n	2001fca <uapi_flash_write_in.part.0+0x56>
 200200c:	e7de      	b.n	2001fcc <uapi_flash_write_in.part.0+0x58>
 200200e:	bf00      	nop
 2002010:	0200c3d0 	.word	0x0200c3d0
 2002014:	0200c3d8 	.word	0x0200c3d8
 2002018:	0200c37c 	.word	0x0200c37c
 200201c:	0200c3d4 	.word	0x0200c3d4

02002020 <flash_protect_config>:
 2002020:	b538      	push	{r3, r4, r5, lr}
 2002022:	4604      	mov	r4, r0
 2002024:	460d      	mov	r5, r1
 2002026:	f20d f96b 	bl	220f300 <uapi_is_int_context>
 200202a:	b1d8      	cbz	r0, 2002064 <flash_protect_config+0x44>
 200202c:	4b11      	ldr	r3, [pc, #68]	; (2002074 <flash_protect_config+0x54>)
 200202e:	f993 3000 	ldrsb.w	r3, [r3]
 2002032:	2b00      	cmp	r3, #0
 2002034:	da0b      	bge.n	200204e <flash_protect_config+0x2e>
 2002036:	2300      	movs	r3, #0
 2002038:	4620      	mov	r0, r4
 200203a:	4629      	mov	r1, r5
 200203c:	461a      	mov	r2, r3
 200203e:	f7ff ff0d 	bl	2001e5c <flash_protect.part.0>
 2002042:	4604      	mov	r4, r0
 2002044:	f20d f95c 	bl	220f300 <uapi_is_int_context>
 2002048:	b130      	cbz	r0, 2002058 <flash_protect_config+0x38>
 200204a:	4620      	mov	r0, r4
 200204c:	bd38      	pop	{r3, r4, r5, pc}
 200204e:	2400      	movs	r4, #0
 2002050:	f20d f956 	bl	220f300 <uapi_is_int_context>
 2002054:	2800      	cmp	r0, #0
 2002056:	d1f8      	bne.n	200204a <flash_protect_config+0x2a>
 2002058:	4b07      	ldr	r3, [pc, #28]	; (2002078 <flash_protect_config+0x58>)
 200205a:	6cd8      	ldr	r0, [r3, #76]	; 0x4c
 200205c:	f20d faaa 	bl	220f5b4 <uapi_mux_post>
 2002060:	4620      	mov	r0, r4
 2002062:	bd38      	pop	{r3, r4, r5, pc}
 2002064:	4b04      	ldr	r3, [pc, #16]	; (2002078 <flash_protect_config+0x58>)
 2002066:	f04f 31ff 	mov.w	r1, #4294967295	; 0xffffffff
 200206a:	6cd8      	ldr	r0, [r3, #76]	; 0x4c
 200206c:	f20d fa8a 	bl	220f584 <uapi_mux_pend>
 2002070:	e7dc      	b.n	200202c <flash_protect_config+0xc>
 2002072:	bf00      	nop
 2002074:	0200c3d8 	.word	0x0200c3d8
 2002078:	0200c37c 	.word	0x0200c37c

0200207c <uapi_flash_protect_enable>:
 200207c:	b510      	push	{r4, lr}
 200207e:	4604      	mov	r4, r0
 2002080:	f20d f93e 	bl	220f300 <uapi_is_int_context>
 2002084:	b198      	cbz	r0, 20020ae <uapi_flash_protect_enable+0x32>
 2002086:	b1d4      	cbz	r4, 20020be <uapi_flash_protect_enable+0x42>
 2002088:	4a23      	ldr	r2, [pc, #140]	; (2002118 <uapi_flash_protect_enable+0x9c>)
 200208a:	7813      	ldrb	r3, [r2, #0]
 200208c:	f003 013f 	and.w	r1, r3, #63	; 0x3f
 2002090:	2902      	cmp	r1, #2
 2002092:	d02e      	beq.n	20020f2 <uapi_flash_protect_enable+0x76>
 2002094:	4921      	ldr	r1, [pc, #132]	; (200211c <uapi_flash_protect_enable+0xa0>)
 2002096:	6cc9      	ldr	r1, [r1, #76]	; 0x4c
 2002098:	2900      	cmp	r1, #0
 200209a:	da24      	bge.n	20020e6 <uapi_flash_protect_enable+0x6a>
 200209c:	f043 0380 	orr.w	r3, r3, #128	; 0x80
 20020a0:	7013      	strb	r3, [r2, #0]
 20020a2:	f20d f92d 	bl	220f300 <uapi_is_int_context>
 20020a6:	4604      	mov	r4, r0
 20020a8:	b1b8      	cbz	r0, 20020da <uapi_flash_protect_enable+0x5e>
 20020aa:	2000      	movs	r0, #0
 20020ac:	bd10      	pop	{r4, pc}
 20020ae:	4b1c      	ldr	r3, [pc, #112]	; (2002120 <uapi_flash_protect_enable+0xa4>)
 20020b0:	f04f 31ff 	mov.w	r1, #4294967295	; 0xffffffff
 20020b4:	6cd8      	ldr	r0, [r3, #76]	; 0x4c
 20020b6:	f20d fa65 	bl	220f584 <uapi_mux_pend>
 20020ba:	2c00      	cmp	r4, #0
 20020bc:	d1e4      	bne.n	2002088 <uapi_flash_protect_enable+0xc>
 20020be:	4621      	mov	r1, r4
 20020c0:	4620      	mov	r0, r4
 20020c2:	f7ff ffad 	bl	2002020 <flash_protect_config>
 20020c6:	4b14      	ldr	r3, [pc, #80]	; (2002118 <uapi_flash_protect_enable+0x9c>)
 20020c8:	781a      	ldrb	r2, [r3, #0]
 20020ca:	f364 12c7 	bfi	r2, r4, #7, #1
 20020ce:	701a      	strb	r2, [r3, #0]
 20020d0:	f20d f916 	bl	220f300 <uapi_is_int_context>
 20020d4:	4604      	mov	r4, r0
 20020d6:	2800      	cmp	r0, #0
 20020d8:	d1e7      	bne.n	20020aa <uapi_flash_protect_enable+0x2e>
 20020da:	4b11      	ldr	r3, [pc, #68]	; (2002120 <uapi_flash_protect_enable+0xa4>)
 20020dc:	6cd8      	ldr	r0, [r3, #76]	; 0x4c
 20020de:	f20d fa69 	bl	220f5b4 <uapi_mux_post>
 20020e2:	4620      	mov	r0, r4
 20020e4:	bd10      	pop	{r4, pc}
 20020e6:	f20d f90b 	bl	220f300 <uapi_is_int_context>
 20020ea:	b138      	cbz	r0, 20020fc <uapi_flash_protect_enable+0x80>
 20020ec:	f640 608d 	movw	r0, #3725	; 0xe8d
 20020f0:	bd10      	pop	{r4, pc}
 20020f2:	f20d f905 	bl	220f300 <uapi_is_int_context>
 20020f6:	b140      	cbz	r0, 200210a <uapi_flash_protect_enable+0x8e>
 20020f8:	2028      	movs	r0, #40	; 0x28
 20020fa:	bd10      	pop	{r4, pc}
 20020fc:	4b08      	ldr	r3, [pc, #32]	; (2002120 <uapi_flash_protect_enable+0xa4>)
 20020fe:	6cd8      	ldr	r0, [r3, #76]	; 0x4c
 2002100:	f20d fa58 	bl	220f5b4 <uapi_mux_post>
 2002104:	f640 608d 	movw	r0, #3725	; 0xe8d
 2002108:	bd10      	pop	{r4, pc}
 200210a:	4b05      	ldr	r3, [pc, #20]	; (2002120 <uapi_flash_protect_enable+0xa4>)
 200210c:	6cd8      	ldr	r0, [r3, #76]	; 0x4c
 200210e:	f20d fa51 	bl	220f5b4 <uapi_mux_post>
 2002112:	2028      	movs	r0, #40	; 0x28
 2002114:	bd10      	pop	{r4, pc}
 2002116:	bf00      	nop
 2002118:	0200c3d8 	.word	0x0200c3d8
 200211c:	40030000 	.word	0x40030000
 2002120:	0200c37c 	.word	0x0200c37c

02002124 <flash_volatile_protect_config>:
 2002124:	b538      	push	{r3, r4, r5, lr}
 2002126:	4604      	mov	r4, r0
 2002128:	460d      	mov	r5, r1
 200212a:	f20d f8e9 	bl	220f300 <uapi_is_int_context>
 200212e:	b1e0      	cbz	r0, 200216a <flash_volatile_protect_config+0x46>
 2002130:	4b19      	ldr	r3, [pc, #100]	; (2002198 <flash_volatile_protect_config+0x74>)
 2002132:	781a      	ldrb	r2, [r3, #0]
 2002134:	f012 033f 	ands.w	r3, r2, #63	; 0x3f
 2002138:	d122      	bne.n	2002180 <flash_volatile_protect_config+0x5c>
 200213a:	0612      	lsls	r2, r2, #24
 200213c:	d50a      	bpl.n	2002154 <flash_volatile_protect_config+0x30>
 200213e:	4620      	mov	r0, r4
 2002140:	2201      	movs	r2, #1
 2002142:	4629      	mov	r1, r5
 2002144:	f7ff fe8a 	bl	2001e5c <flash_protect.part.0>
 2002148:	4604      	mov	r4, r0
 200214a:	f20d f8d9 	bl	220f300 <uapi_is_int_context>
 200214e:	b130      	cbz	r0, 200215e <flash_volatile_protect_config+0x3a>
 2002150:	4620      	mov	r0, r4
 2002152:	bd38      	pop	{r3, r4, r5, pc}
 2002154:	461c      	mov	r4, r3
 2002156:	f20d f8d3 	bl	220f300 <uapi_is_int_context>
 200215a:	2800      	cmp	r0, #0
 200215c:	d1f8      	bne.n	2002150 <flash_volatile_protect_config+0x2c>
 200215e:	4b0f      	ldr	r3, [pc, #60]	; (200219c <flash_volatile_protect_config+0x78>)
 2002160:	6cd8      	ldr	r0, [r3, #76]	; 0x4c
 2002162:	f20d fa27 	bl	220f5b4 <uapi_mux_post>
 2002166:	4620      	mov	r0, r4
 2002168:	bd38      	pop	{r3, r4, r5, pc}
 200216a:	4b0c      	ldr	r3, [pc, #48]	; (200219c <flash_volatile_protect_config+0x78>)
 200216c:	f04f 31ff 	mov.w	r1, #4294967295	; 0xffffffff
 2002170:	6cd8      	ldr	r0, [r3, #76]	; 0x4c
 2002172:	f20d fa07 	bl	220f584 <uapi_mux_pend>
 2002176:	4b08      	ldr	r3, [pc, #32]	; (2002198 <flash_volatile_protect_config+0x74>)
 2002178:	781a      	ldrb	r2, [r3, #0]
 200217a:	f012 033f 	ands.w	r3, r2, #63	; 0x3f
 200217e:	d0dc      	beq.n	200213a <flash_volatile_protect_config+0x16>
 2002180:	f20d f8be 	bl	220f300 <uapi_is_int_context>
 2002184:	b108      	cbz	r0, 200218a <flash_volatile_protect_config+0x66>
 2002186:	2428      	movs	r4, #40	; 0x28
 2002188:	e7e2      	b.n	2002150 <flash_volatile_protect_config+0x2c>
 200218a:	4b04      	ldr	r3, [pc, #16]	; (200219c <flash_volatile_protect_config+0x78>)
 200218c:	2428      	movs	r4, #40	; 0x28
 200218e:	6cd8      	ldr	r0, [r3, #76]	; 0x4c
 2002190:	f20d fa10 	bl	220f5b4 <uapi_mux_post>
 2002194:	e7dc      	b.n	2002150 <flash_volatile_protect_config+0x2c>
 2002196:	bf00      	nop
 2002198:	0200c3d8 	.word	0x0200c3d8
 200219c:	0200c37c 	.word	0x0200c37c

020021a0 <flash_protect_job>:
 20021a0:	f010 01ff 	ands.w	r1, r0, #255	; 0xff
 20021a4:	b508      	push	{r3, lr}
 20021a6:	d00a      	beq.n	20021be <flash_protect_job+0x1e>
 20021a8:	2100      	movs	r1, #0
 20021aa:	f04f 30ff 	mov.w	r0, #4294967295	; 0xffffffff
 20021ae:	f7ff ffb9 	bl	2002124 <flash_volatile_protect_config>
 20021b2:	b118      	cbz	r0, 20021bc <flash_protect_job+0x1c>
 20021b4:	4a04      	ldr	r2, [pc, #16]	; (20021c8 <flash_protect_job+0x28>)
 20021b6:	7bd3      	ldrb	r3, [r2, #15]
 20021b8:	3301      	adds	r3, #1
 20021ba:	73d3      	strb	r3, [r2, #15]
 20021bc:	bd08      	pop	{r3, pc}
 20021be:	f04f 30ff 	mov.w	r0, #4294967295	; 0xffffffff
 20021c2:	f7ff ff2d 	bl	2002020 <flash_protect_config>
 20021c6:	e7f4      	b.n	20021b2 <flash_protect_job+0x12>
 20021c8:	0200c3d8 	.word	0x0200c3d8

020021cc <uapi_flash_protect_get_ctrl_info>:
 20021cc:	4800      	ldr	r0, [pc, #0]	; (20021d0 <uapi_flash_protect_get_ctrl_info+0x4>)
 20021ce:	4770      	bx	lr
 20021d0:	0200c3d8 	.word	0x0200c3d8

020021d4 <uapi_flash_fast_read>:
 20021d4:	b5f0      	push	{r4, r5, r6, r7, lr}
 20021d6:	4e15      	ldr	r6, [pc, #84]	; (200222c <uapi_flash_fast_read+0x58>)
 20021d8:	b083      	sub	sp, #12
 20021da:	6833      	ldr	r3, [r6, #0]
 20021dc:	2b01      	cmp	r3, #1
 20021de:	d003      	beq.n	20021e8 <uapi_flash_fast_read+0x14>
 20021e0:	2403      	movs	r4, #3
 20021e2:	4620      	mov	r0, r4
 20021e4:	b003      	add	sp, #12
 20021e6:	bdf0      	pop	{r4, r5, r6, r7, pc}
 20021e8:	4607      	mov	r7, r0
 20021ea:	460c      	mov	r4, r1
 20021ec:	4615      	mov	r5, r2
 20021ee:	f20d f887 	bl	220f300 <uapi_is_int_context>
 20021f2:	b1a0      	cbz	r0, 200221e <uapi_flash_fast_read+0x4a>
 20021f4:	f04f 0c00 	mov.w	ip, #0
 20021f8:	4622      	mov	r2, r4
 20021fa:	462b      	mov	r3, r5
 20021fc:	6c34      	ldr	r4, [r6, #64]	; 0x40
 20021fe:	4639      	mov	r1, r7
 2002200:	480a      	ldr	r0, [pc, #40]	; (200222c <uapi_flash_fast_read+0x58>)
 2002202:	f8cd c000 	str.w	ip, [sp]
 2002206:	47a0      	blx	r4
 2002208:	4604      	mov	r4, r0
 200220a:	f20d f879 	bl	220f300 <uapi_is_int_context>
 200220e:	2800      	cmp	r0, #0
 2002210:	d1e7      	bne.n	20021e2 <uapi_flash_fast_read+0xe>
 2002212:	6cf0      	ldr	r0, [r6, #76]	; 0x4c
 2002214:	f20d f9ce 	bl	220f5b4 <uapi_mux_post>
 2002218:	4620      	mov	r0, r4
 200221a:	b003      	add	sp, #12
 200221c:	bdf0      	pop	{r4, r5, r6, r7, pc}
 200221e:	f04f 31ff 	mov.w	r1, #4294967295	; 0xffffffff
 2002222:	6cf0      	ldr	r0, [r6, #76]	; 0x4c
 2002224:	f20d f9ae 	bl	220f584 <uapi_mux_pend>
 2002228:	e7e4      	b.n	20021f4 <uapi_flash_fast_read+0x20>
 200222a:	bf00      	nop
 200222c:	0200c37c 	.word	0x0200c37c

02002230 <uapi_flash_erase_in>:
 2002230:	b5f8      	push	{r3, r4, r5, r6, r7, lr}
 2002232:	4605      	mov	r5, r0
 2002234:	4f1f      	ldr	r7, [pc, #124]	; (20022b4 <uapi_flash_erase_in+0x84>)
 2002236:	460a      	mov	r2, r1
 2002238:	2302      	movs	r3, #2
 200223a:	4638      	mov	r0, r7
 200223c:	460e      	mov	r6, r1
 200223e:	4629      	mov	r1, r5
 2002240:	f20a fb90 	bl	220c964 <sfc_check_para>
 2002244:	4604      	mov	r4, r0
 2002246:	b108      	cbz	r0, 200224c <uapi_flash_erase_in+0x1c>
 2002248:	4620      	mov	r0, r4
 200224a:	bdf8      	pop	{r3, r4, r5, r6, r7, pc}
 200224c:	f20d f858 	bl	220f300 <uapi_is_int_context>
 2002250:	b348      	cbz	r0, 20022a6 <uapi_flash_erase_in+0x76>
 2002252:	4b19      	ldr	r3, [pc, #100]	; (20022b8 <uapi_flash_erase_in+0x88>)
 2002254:	681b      	ldr	r3, [r3, #0]
 2002256:	b103      	cbz	r3, 200225a <uapi_flash_erase_in+0x2a>
 2002258:	4798      	blx	r3
 200225a:	4b18      	ldr	r3, [pc, #96]	; (20022bc <uapi_flash_erase_in+0x8c>)
 200225c:	f993 3000 	ldrsb.w	r3, [r3]
 2002260:	2b00      	cmp	r3, #0
 2002262:	da08      	bge.n	2002276 <uapi_flash_erase_in+0x46>
 2002264:	2301      	movs	r3, #1
 2002266:	f04f 31ff 	mov.w	r1, #4294967295	; 0xffffffff
 200226a:	4628      	mov	r0, r5
 200226c:	461a      	mov	r2, r3
 200226e:	f7ff fdf5 	bl	2001e5c <flash_protect.part.0>
 2002272:	4604      	mov	r4, r0
 2002274:	b990      	cbnz	r0, 200229c <uapi_flash_erase_in+0x6c>
 2002276:	4632      	mov	r2, r6
 2002278:	4629      	mov	r1, r5
 200227a:	480e      	ldr	r0, [pc, #56]	; (20022b4 <uapi_flash_erase_in+0x84>)
 200227c:	f20a fcaa 	bl	220cbd4 <flash_erase_prv>
 2002280:	4b0f      	ldr	r3, [pc, #60]	; (20022c0 <uapi_flash_erase_in+0x90>)
 2002282:	4604      	mov	r4, r0
 2002284:	681b      	ldr	r3, [r3, #0]
 2002286:	b103      	cbz	r3, 200228a <uapi_flash_erase_in+0x5a>
 2002288:	4798      	blx	r3
 200228a:	f20d f839 	bl	220f300 <uapi_is_int_context>
 200228e:	2800      	cmp	r0, #0
 2002290:	d1da      	bne.n	2002248 <uapi_flash_erase_in+0x18>
 2002292:	6cf8      	ldr	r0, [r7, #76]	; 0x4c
 2002294:	f20d f98e 	bl	220f5b4 <uapi_mux_post>
 2002298:	4620      	mov	r0, r4
 200229a:	bdf8      	pop	{r3, r4, r5, r6, r7, pc}
 200229c:	4b08      	ldr	r3, [pc, #32]	; (20022c0 <uapi_flash_erase_in+0x90>)
 200229e:	681b      	ldr	r3, [r3, #0]
 20022a0:	2b00      	cmp	r3, #0
 20022a2:	d1f1      	bne.n	2002288 <uapi_flash_erase_in+0x58>
 20022a4:	e7f1      	b.n	200228a <uapi_flash_erase_in+0x5a>
 20022a6:	f04f 31ff 	mov.w	r1, #4294967295	; 0xffffffff
 20022aa:	6cf8      	ldr	r0, [r7, #76]	; 0x4c
 20022ac:	f20d f96a 	bl	220f584 <uapi_mux_pend>
 20022b0:	e7cf      	b.n	2002252 <uapi_flash_erase_in+0x22>
 20022b2:	bf00      	nop
 20022b4:	0200c37c 	.word	0x0200c37c
 20022b8:	0200c3d0 	.word	0x0200c3d0
 20022bc:	0200c3d8 	.word	0x0200c3d8
 20022c0:	0200c3d4 	.word	0x0200c3d4

020022c4 <uapi_flash_write_in>:
 20022c4:	b33a      	cbz	r2, 2002316 <uapi_flash_write_in+0x52>
 20022c6:	e92d 41f0 	stmdb	sp!, {r4, r5, r6, r7, r8, lr}
 20022ca:	4614      	mov	r4, r2
 20022cc:	f102 427e 	add.w	r2, r2, #4261412864	; 0xfe000000
 20022d0:	f5a2 3260 	sub.w	r2, r2, #229376	; 0x38000
 20022d4:	f5b2 2f48 	cmp.w	r2, #819200	; 0xc8000
 20022d8:	d319      	bcc.n	200230e <uapi_flash_write_in+0x4a>
 20022da:	4a10      	ldr	r2, [pc, #64]	; (200231c <uapi_flash_write_in+0x58>)
 20022dc:	460d      	mov	r5, r1
 20022de:	440a      	add	r2, r1
 20022e0:	4422      	add	r2, r4
 20022e2:	f5b2 2f48 	cmp.w	r2, #819200	; 0xc8000
 20022e6:	d312      	bcc.n	200230e <uapi_flash_write_in+0x4a>
 20022e8:	4606      	mov	r6, r0
 20022ea:	461f      	mov	r7, r3
 20022ec:	460a      	mov	r2, r1
 20022ee:	2301      	movs	r3, #1
 20022f0:	4601      	mov	r1, r0
 20022f2:	480b      	ldr	r0, [pc, #44]	; (2002320 <uapi_flash_write_in+0x5c>)
 20022f4:	f20a fb36 	bl	220c964 <sfc_check_para>
 20022f8:	b108      	cbz	r0, 20022fe <uapi_flash_write_in+0x3a>
 20022fa:	e8bd 81f0 	ldmia.w	sp!, {r4, r5, r6, r7, r8, pc}
 20022fe:	463b      	mov	r3, r7
 2002300:	4622      	mov	r2, r4
 2002302:	4629      	mov	r1, r5
 2002304:	4630      	mov	r0, r6
 2002306:	e8bd 41f0 	ldmia.w	sp!, {r4, r5, r6, r7, r8, lr}
 200230a:	f7ff be33 	b.w	2001f74 <uapi_flash_write_in.part.0>
 200230e:	f640 608f 	movw	r0, #3727	; 0xe8f
 2002312:	e8bd 81f0 	ldmia.w	sp!, {r4, r5, r6, r7, r8, pc}
 2002316:	2001      	movs	r0, #1
 2002318:	4770      	bx	lr
 200231a:	bf00      	nop
 200231c:	fdfc7fff 	.word	0xfdfc7fff
 2002320:	0200c37c 	.word	0x0200c37c

02002324 <uapi_flash_read_in>:
 2002324:	e92d 41f0 	stmdb	sp!, {r4, r5, r6, r7, r8, lr}
 2002328:	2a00      	cmp	r2, #0
 200232a:	d04c      	beq.n	20023c6 <uapi_flash_read_in+0xa2>
 200232c:	f102 457e 	add.w	r5, r2, #4261412864	; 0xfe000000
 2002330:	f5a5 3560 	sub.w	r5, r5, #229376	; 0x38000
 2002334:	f5b5 2f48 	cmp.w	r5, #819200	; 0xc8000
 2002338:	4614      	mov	r4, r2
 200233a:	d338      	bcc.n	20023ae <uapi_flash_read_in+0x8a>
 200233c:	4d24      	ldr	r5, [pc, #144]	; (20023d0 <uapi_flash_read_in+0xac>)
 200233e:	460f      	mov	r7, r1
 2002340:	440d      	add	r5, r1
 2002342:	4415      	add	r5, r2
 2002344:	f5b5 2f48 	cmp.w	r5, #819200	; 0xc8000
 2002348:	d331      	bcc.n	20023ae <uapi_flash_read_in+0x8a>
 200234a:	f8df 8088 	ldr.w	r8, [pc, #136]	; 20023d4 <uapi_flash_read_in+0xb0>
 200234e:	460a      	mov	r2, r1
 2002350:	4606      	mov	r6, r0
 2002352:	4601      	mov	r1, r0
 2002354:	2300      	movs	r3, #0
 2002356:	4640      	mov	r0, r8
 2002358:	f20a fb04 	bl	220c964 <sfc_check_para>
 200235c:	4605      	mov	r5, r0
 200235e:	b110      	cbz	r0, 2002366 <uapi_flash_read_in+0x42>
 2002360:	4628      	mov	r0, r5
 2002362:	e8bd 81f0 	ldmia.w	sp!, {r4, r5, r6, r7, r8, pc}
 2002366:	f20c ffcb 	bl	220f300 <uapi_is_int_context>
 200236a:	b328      	cbz	r0, 20023b8 <uapi_flash_read_in+0x94>
 200236c:	2101      	movs	r1, #1
 200236e:	200e      	movs	r0, #14
 2002370:	f000 fcf2 	bl	2002d58 <uapi_lowpower_forbid>
 2002374:	4b18      	ldr	r3, [pc, #96]	; (20023d8 <uapi_flash_read_in+0xb4>)
 2002376:	681b      	ldr	r3, [r3, #0]
 2002378:	b103      	cbz	r3, 200237c <uapi_flash_read_in+0x58>
 200237a:	4798      	blx	r3
 200237c:	463b      	mov	r3, r7
 200237e:	4622      	mov	r2, r4
 2002380:	4631      	mov	r1, r6
 2002382:	4814      	ldr	r0, [pc, #80]	; (20023d4 <uapi_flash_read_in+0xb0>)
 2002384:	f20a fc2c 	bl	220cbe0 <flash_read_prv>
 2002388:	4b14      	ldr	r3, [pc, #80]	; (20023dc <uapi_flash_read_in+0xb8>)
 200238a:	4605      	mov	r5, r0
 200238c:	681b      	ldr	r3, [r3, #0]
 200238e:	b103      	cbz	r3, 2002392 <uapi_flash_read_in+0x6e>
 2002390:	4798      	blx	r3
 2002392:	2232      	movs	r2, #50	; 0x32
 2002394:	2101      	movs	r1, #1
 2002396:	200e      	movs	r0, #14
 2002398:	f000 fd0a 	bl	2002db0 <uapi_lowpower_unforbid>
 200239c:	f20c ffb0 	bl	220f300 <uapi_is_int_context>
 20023a0:	2800      	cmp	r0, #0
 20023a2:	d1dd      	bne.n	2002360 <uapi_flash_read_in+0x3c>
 20023a4:	f8d8 004c 	ldr.w	r0, [r8, #76]	; 0x4c
 20023a8:	f20d f904 	bl	220f5b4 <uapi_mux_post>
 20023ac:	e7d8      	b.n	2002360 <uapi_flash_read_in+0x3c>
 20023ae:	f640 658f 	movw	r5, #3727	; 0xe8f
 20023b2:	4628      	mov	r0, r5
 20023b4:	e8bd 81f0 	ldmia.w	sp!, {r4, r5, r6, r7, r8, pc}
 20023b8:	f04f 31ff 	mov.w	r1, #4294967295	; 0xffffffff
 20023bc:	f8d8 004c 	ldr.w	r0, [r8, #76]	; 0x4c
 20023c0:	f20d f8e0 	bl	220f584 <uapi_mux_pend>
 20023c4:	e7d2      	b.n	200236c <uapi_flash_read_in+0x48>
 20023c6:	f640 657a 	movw	r5, #3706	; 0xe7a
 20023ca:	4628      	mov	r0, r5
 20023cc:	e8bd 81f0 	ldmia.w	sp!, {r4, r5, r6, r7, r8, pc}
 20023d0:	fdfc7fff 	.word	0xfdfc7fff
 20023d4:	0200c37c 	.word	0x0200c37c
 20023d8:	0200c3d0 	.word	0x0200c3d0
 20023dc:	0200c3d4 	.word	0x0200c3d4

020023e0 <uapi_flash_erase>:
 20023e0:	f7ff bf26 	b.w	2002230 <uapi_flash_erase_in>

020023e4 <uapi_flash_write>:
 20023e4:	b33a      	cbz	r2, 2002436 <uapi_flash_write+0x52>
 20023e6:	e92d 41f0 	stmdb	sp!, {r4, r5, r6, r7, r8, lr}
 20023ea:	4614      	mov	r4, r2
 20023ec:	f102 427e 	add.w	r2, r2, #4261412864	; 0xfe000000
 20023f0:	f5a2 3260 	sub.w	r2, r2, #229376	; 0x38000
 20023f4:	f5b2 2f48 	cmp.w	r2, #819200	; 0xc8000
 20023f8:	d319      	bcc.n	200242e <uapi_flash_write+0x4a>
 20023fa:	461f      	mov	r7, r3
 20023fc:	4b0f      	ldr	r3, [pc, #60]	; (200243c <uapi_flash_write+0x58>)
 20023fe:	190a      	adds	r2, r1, r4
 2002400:	4413      	add	r3, r2
 2002402:	f5b3 2f48 	cmp.w	r3, #819200	; 0xc8000
 2002406:	460d      	mov	r5, r1
 2002408:	d311      	bcc.n	200242e <uapi_flash_write+0x4a>
 200240a:	4606      	mov	r6, r0
 200240c:	460a      	mov	r2, r1
 200240e:	2301      	movs	r3, #1
 2002410:	4601      	mov	r1, r0
 2002412:	480b      	ldr	r0, [pc, #44]	; (2002440 <uapi_flash_write+0x5c>)
 2002414:	f20a faa6 	bl	220c964 <sfc_check_para>
 2002418:	b108      	cbz	r0, 200241e <uapi_flash_write+0x3a>
 200241a:	e8bd 81f0 	ldmia.w	sp!, {r4, r5, r6, r7, r8, pc}
 200241e:	463b      	mov	r3, r7
 2002420:	4622      	mov	r2, r4
 2002422:	4629      	mov	r1, r5
 2002424:	4630      	mov	r0, r6
 2002426:	e8bd 41f0 	ldmia.w	sp!, {r4, r5, r6, r7, r8, lr}
 200242a:	f7ff bda3 	b.w	2001f74 <uapi_flash_write_in.part.0>
 200242e:	f640 608f 	movw	r0, #3727	; 0xe8f
 2002432:	e8bd 81f0 	ldmia.w	sp!, {r4, r5, r6, r7, r8, pc}
 2002436:	2001      	movs	r0, #1
 2002438:	4770      	bx	lr
 200243a:	bf00      	nop
 200243c:	fdfc7fff 	.word	0xfdfc7fff
 2002440:	0200c37c 	.word	0x0200c37c

02002444 <uapi_flash_read>:
 2002444:	f7ff bf6e 	b.w	2002324 <uapi_flash_read_in>

02002448 <uapi_flash_ioctl>:
 2002448:	b570      	push	{r4, r5, r6, lr}
 200244a:	4e15      	ldr	r6, [pc, #84]	; (20024a0 <uapi_flash_ioctl+0x58>)
 200244c:	6833      	ldr	r3, [r6, #0]
 200244e:	2b01      	cmp	r3, #1
 2002450:	d002      	beq.n	2002458 <uapi_flash_ioctl+0x10>
 2002452:	2403      	movs	r4, #3
 2002454:	4620      	mov	r0, r4
 2002456:	bd70      	pop	{r4, r5, r6, pc}
 2002458:	4604      	mov	r4, r0
 200245a:	460d      	mov	r5, r1
 200245c:	f20c ff50 	bl	220f300 <uapi_is_int_context>
 2002460:	b1c0      	cbz	r0, 2002494 <uapi_flash_ioctl+0x4c>
 2002462:	2101      	movs	r1, #1
 2002464:	200e      	movs	r0, #14
 2002466:	f000 fc77 	bl	2002d58 <uapi_lowpower_forbid>
 200246a:	4621      	mov	r1, r4
 200246c:	462a      	mov	r2, r5
 200246e:	480c      	ldr	r0, [pc, #48]	; (20024a0 <uapi_flash_ioctl+0x58>)
 2002470:	f20a fbe4 	bl	220cc3c <flash_ioctl>
 2002474:	f44f 727a 	mov.w	r2, #1000	; 0x3e8
 2002478:	4604      	mov	r4, r0
 200247a:	2101      	movs	r1, #1
 200247c:	200e      	movs	r0, #14
 200247e:	f000 fc97 	bl	2002db0 <uapi_lowpower_unforbid>
 2002482:	f20c ff3d 	bl	220f300 <uapi_is_int_context>
 2002486:	2800      	cmp	r0, #0
 2002488:	d1e4      	bne.n	2002454 <uapi_flash_ioctl+0xc>
 200248a:	6cf0      	ldr	r0, [r6, #76]	; 0x4c
 200248c:	f20d f892 	bl	220f5b4 <uapi_mux_post>
 2002490:	4620      	mov	r0, r4
 2002492:	bd70      	pop	{r4, r5, r6, pc}
 2002494:	f04f 31ff 	mov.w	r1, #4294967295	; 0xffffffff
 2002498:	6cf0      	ldr	r0, [r6, #76]	; 0x4c
 200249a:	f20d f873 	bl	220f584 <uapi_mux_pend>
 200249e:	e7e0      	b.n	2002462 <uapi_flash_ioctl+0x1a>
 20024a0:	0200c37c 	.word	0x0200c37c

020024a4 <uapi_flash_init>:
 20024a4:	2300      	movs	r3, #0
 20024a6:	b570      	push	{r4, r5, r6, lr}
 20024a8:	4a3d      	ldr	r2, [pc, #244]	; (20025a0 <uapi_flash_init+0xfc>)
 20024aa:	4d3e      	ldr	r5, [pc, #248]	; (20025a4 <uapi_flash_init+0x100>)
 20024ac:	b084      	sub	sp, #16
 20024ae:	6812      	ldr	r2, [r2, #0]
 20024b0:	9203      	str	r2, [sp, #12]
 20024b2:	f04f 0200 	mov.w	r2, #0
 20024b6:	682a      	ldr	r2, [r5, #0]
 20024b8:	e9cd 3301 	strd	r3, r3, [sp, #4]
 20024bc:	2a01      	cmp	r2, #1
 20024be:	d03e      	beq.n	200253e <uapi_flash_init+0x9a>
 20024c0:	2101      	movs	r1, #1
 20024c2:	200e      	movs	r0, #14
 20024c4:	f000 fc48 	bl	2002d58 <uapi_lowpower_forbid>
 20024c8:	f44f 6180 	mov.w	r1, #1024	; 0x400
 20024cc:	4a36      	ldr	r2, [pc, #216]	; (20025a8 <uapi_flash_init+0x104>)
 20024ce:	4837      	ldr	r0, [pc, #220]	; (20025ac <uapi_flash_init+0x108>)
 20024d0:	6a53      	ldr	r3, [r2, #36]	; 0x24
 20024d2:	63a8      	str	r0, [r5, #56]	; 0x38
 20024d4:	f423 73f8 	bic.w	r3, r3, #496	; 0x1f0
 20024d8:	4835      	ldr	r0, [pc, #212]	; (20025b0 <uapi_flash_init+0x10c>)
 20024da:	f043 0390 	orr.w	r3, r3, #144	; 0x90
 20024de:	6253      	str	r3, [r2, #36]	; 0x24
 20024e0:	63e8      	str	r0, [r5, #60]	; 0x3c
 20024e2:	6369      	str	r1, [r5, #52]	; 0x34
 20024e4:	f20a fc7a 	bl	220cddc <sfc_sys_init>
 20024e8:	2304      	movs	r3, #4
 20024ea:	4628      	mov	r0, r5
 20024ec:	4a31      	ldr	r2, [pc, #196]	; (20025b4 <uapi_flash_init+0x110>)
 20024ee:	eb0d 0103 	add.w	r1, sp, r3
 20024f2:	f20a fbbb 	bl	220cc6c <spi_flash_basic_info_probe>
 20024f6:	4604      	mov	r4, r0
 20024f8:	b180      	cbz	r0, 200251c <uapi_flash_init+0x78>
 20024fa:	f20a fc7f 	bl	220cdfc <sfc_sys_exit>
 20024fe:	2200      	movs	r2, #0
 2002500:	2101      	movs	r1, #1
 2002502:	200e      	movs	r0, #14
 2002504:	f000 fc54 	bl	2002db0 <uapi_lowpower_unforbid>
 2002508:	4b25      	ldr	r3, [pc, #148]	; (20025a0 <uapi_flash_init+0xfc>)
 200250a:	681a      	ldr	r2, [r3, #0]
 200250c:	9b03      	ldr	r3, [sp, #12]
 200250e:	405a      	eors	r2, r3
 2002510:	f04f 0300 	mov.w	r3, #0
 2002514:	d142      	bne.n	200259c <uapi_flash_init+0xf8>
 2002516:	4620      	mov	r0, r4
 2002518:	b004      	add	sp, #16
 200251a:	bd70      	pop	{r4, r5, r6, pc}
 200251c:	f20a f98c 	bl	220c838 <spi_flash_enable_quad_mode>
 2002520:	b180      	cbz	r0, 2002544 <uapi_flash_init+0xa0>
 2002522:	4925      	ldr	r1, [pc, #148]	; (20025b8 <uapi_flash_init+0x114>)
 2002524:	4825      	ldr	r0, [pc, #148]	; (20025bc <uapi_flash_init+0x118>)
 2002526:	f20d f80f 	bl	220f548 <uapi_mux_create>
 200252a:	4604      	mov	r4, r0
 200252c:	2800      	cmp	r0, #0
 200252e:	d1e4      	bne.n	20024fa <uapi_flash_init+0x56>
 2002530:	f001 ff66 	bl	2004400 <uapi_get_hw_chip_type>
 2002534:	2802      	cmp	r0, #2
 2002536:	d00d      	beq.n	2002554 <uapi_flash_init+0xb0>
 2002538:	2301      	movs	r3, #1
 200253a:	602b      	str	r3, [r5, #0]
 200253c:	e7df      	b.n	20024fe <uapi_flash_init+0x5a>
 200253e:	f640 6489 	movw	r4, #3721	; 0xe89
 2002542:	e7e1      	b.n	2002508 <uapi_flash_init+0x64>
 2002544:	2304      	movs	r3, #4
 2002546:	4a1e      	ldr	r2, [pc, #120]	; (20025c0 <uapi_flash_init+0x11c>)
 2002548:	4619      	mov	r1, r3
 200254a:	f105 0018 	add.w	r0, r5, #24
 200254e:	f205 fd65 	bl	220801c <memcpy_s>
 2002552:	e7e6      	b.n	2002522 <uapi_flash_init+0x7e>
 2002554:	8aab      	ldrh	r3, [r5, #20]
 2002556:	07db      	lsls	r3, r3, #31
 2002558:	d4ee      	bmi.n	2002538 <uapi_flash_init+0x94>
 200255a:	7deb      	ldrb	r3, [r5, #23]
 200255c:	2b02      	cmp	r3, #2
 200255e:	d815      	bhi.n	200258c <uapi_flash_init+0xe8>
 2002560:	4e18      	ldr	r6, [pc, #96]	; (20025c4 <uapi_flash_init+0x120>)
 2002562:	2001      	movs	r0, #1
 2002564:	7832      	ldrb	r2, [r6, #0]
 2002566:	f363 0205 	bfi	r2, r3, #0, #6
 200256a:	7032      	strb	r2, [r6, #0]
 200256c:	f7ff fd86 	bl	200207c <uapi_flash_protect_enable>
 2002570:	f996 3000 	ldrsb.w	r3, [r6]
 2002574:	6928      	ldr	r0, [r5, #16]
 2002576:	2b00      	cmp	r3, #0
 2002578:	da0c      	bge.n	2002594 <uapi_flash_init+0xf0>
 200257a:	4621      	mov	r1, r4
 200257c:	f7ff fd50 	bl	2002020 <flash_protect_config>
 2002580:	2301      	movs	r3, #1
 2002582:	4604      	mov	r4, r0
 2002584:	602b      	str	r3, [r5, #0]
 2002586:	2800      	cmp	r0, #0
 2002588:	d0b9      	beq.n	20024fe <uapi_flash_init+0x5a>
 200258a:	e7b6      	b.n	20024fa <uapi_flash_init+0x56>
 200258c:	2301      	movs	r3, #1
 200258e:	461c      	mov	r4, r3
 2002590:	602b      	str	r3, [r5, #0]
 2002592:	e7b2      	b.n	20024fa <uapi_flash_init+0x56>
 2002594:	2301      	movs	r3, #1
 2002596:	2428      	movs	r4, #40	; 0x28
 2002598:	602b      	str	r3, [r5, #0]
 200259a:	e7ae      	b.n	20024fa <uapi_flash_init+0x56>
 200259c:	f202 fcc4 	bl	2204f28 <__stack_chk_fail>
 20025a0:	02000498 	.word	0x02000498
 20025a4:	0200c37c 	.word	0x0200c37c
 20025a8:	4003b000 	.word	0x4003b000
 20025ac:	0200bf7c 	.word	0x0200bf7c
 20025b0:	0200af7c 	.word	0x0200af7c
 20025b4:	020080f0 	.word	0x020080f0
 20025b8:	02008094 	.word	0x02008094
 20025bc:	0200c3c8 	.word	0x0200c3c8
 20025c0:	0220efac 	.word	0x0220efac
 20025c4:	0200c3d8 	.word	0x0200c3d8

020025c8 <get_instr_reg_index.constprop.0>:
 20025c8:	b430      	push	{r4, r5}
 20025ca:	2500      	movs	r5, #0
 20025cc:	4c15      	ldr	r4, [pc, #84]	; (2002624 <get_instr_reg_index.constprop.0+0x5c>)
 20025ce:	462b      	mov	r3, r5
 20025d0:	f040 0001 	orr.w	r0, r0, #1
 20025d4:	e008      	b.n	20025e8 <get_instr_reg_index.constprop.0+0x20>
 20025d6:	4282      	cmp	r2, r0
 20025d8:	d01f      	beq.n	200261a <get_instr_reg_index.constprop.0+0x52>
 20025da:	fa5f f38c 	uxtb.w	r3, ip
 20025de:	2bfe      	cmp	r3, #254	; 0xfe
 20025e0:	d013      	beq.n	200260a <get_instr_reg_index.constprop.0+0x42>
 20025e2:	2b06      	cmp	r3, #6
 20025e4:	bf08      	it	eq
 20025e6:	2308      	moveq	r3, #8
 20025e8:	1c9a      	adds	r2, r3, #2
 20025ea:	f854 2022 	ldr.w	r2, [r4, r2, lsl #2]
 20025ee:	f103 0c01 	add.w	ip, r3, #1
 20025f2:	f012 0f01 	tst.w	r2, #1
 20025f6:	d1ee      	bne.n	20025d6 <get_instr_reg_index.constprop.0+0xe>
 20025f8:	2d00      	cmp	r5, #0
 20025fa:	d1ee      	bne.n	20025da <get_instr_reg_index.constprop.0+0x12>
 20025fc:	700b      	strb	r3, [r1, #0]
 20025fe:	fa5f f38c 	uxtb.w	r3, ip
 2002602:	2bfe      	cmp	r3, #254	; 0xfe
 2002604:	f04f 0501 	mov.w	r5, #1
 2002608:	d1eb      	bne.n	20025e2 <get_instr_reg_index.constprop.0+0x1a>
 200260a:	2d00      	cmp	r5, #0
 200260c:	bf18      	it	ne
 200260e:	2000      	movne	r0, #0
 2002610:	bc30      	pop	{r4, r5}
 2002612:	bf08      	it	eq
 2002614:	f06f 0001 	mvneq.w	r0, #1
 2002618:	4770      	bx	lr
 200261a:	f04f 30ff 	mov.w	r0, #4294967295	; 0xffffffff
 200261e:	bc30      	pop	{r4, r5}
 2002620:	700b      	strb	r3, [r1, #0]
 2002622:	4770      	bx	lr
 2002624:	e0002000 	.word	0xe0002000

02002628 <fpb_init>:
 2002628:	2300      	movs	r3, #0
 200262a:	b410      	push	{r4}
 200262c:	f04f 5200 	mov.w	r2, #536870912	; 0x20000000
 2002630:	2403      	movs	r4, #3
 2002632:	4618      	mov	r0, r3
 2002634:	4905      	ldr	r1, [pc, #20]	; (200264c <fpb_init+0x24>)
 2002636:	600c      	str	r4, [r1, #0]
 2002638:	604a      	str	r2, [r1, #4]
 200263a:	1c9a      	adds	r2, r3, #2
 200263c:	3301      	adds	r3, #1
 200263e:	2bfe      	cmp	r3, #254	; 0xfe
 2002640:	f841 0022 	str.w	r0, [r1, r2, lsl #2]
 2002644:	d1f9      	bne.n	200263a <fpb_init+0x12>
 2002646:	bc10      	pop	{r4}
 2002648:	4770      	bx	lr
 200264a:	bf00      	nop
 200264c:	e0002000 	.word	0xe0002000

02002650 <fpb_add_patch>:
 2002650:	2300      	movs	r3, #0
 2002652:	b570      	push	{r4, r5, r6, lr}
 2002654:	4c6b      	ldr	r4, [pc, #428]	; (2002804 <fpb_add_patch+0x1b4>)
 2002656:	b084      	sub	sp, #16
 2002658:	2a01      	cmp	r2, #1
 200265a:	6824      	ldr	r4, [r4, #0]
 200265c:	9403      	str	r4, [sp, #12]
 200265e:	f04f 0400 	mov.w	r4, #0
 2002662:	f88d 300b 	strb.w	r3, [sp, #11]
 2002666:	d817      	bhi.n	2002698 <fpb_add_patch+0x48>
 2002668:	4604      	mov	r4, r0
 200266a:	460d      	mov	r5, r1
 200266c:	d018      	beq.n	20026a0 <fpb_add_patch+0x50>
 200266e:	f010 0202 	ands.w	r2, r0, #2
 2002672:	d037      	beq.n	20026e4 <fpb_add_patch+0x94>
 2002674:	f44f 54de 	mov.w	r4, #7104	; 0x1bc0
 2002678:	461a      	mov	r2, r3
 200267a:	4621      	mov	r1, r4
 200267c:	4862      	ldr	r0, [pc, #392]	; (2002808 <fpb_add_patch+0x1b8>)
 200267e:	f202 fc39 	bl	2204ef4 <printf>
 2002682:	4b60      	ldr	r3, [pc, #384]	; (2002804 <fpb_add_patch+0x1b4>)
 2002684:	681a      	ldr	r2, [r3, #0]
 2002686:	9b03      	ldr	r3, [sp, #12]
 2002688:	405a      	eors	r2, r3
 200268a:	f04f 0300 	mov.w	r3, #0
 200268e:	f040 80b7 	bne.w	2002800 <fpb_add_patch+0x1b0>
 2002692:	4620      	mov	r0, r4
 2002694:	b004      	add	sp, #16
 2002696:	bd70      	pop	{r4, r5, r6, pc}
 2002698:	f641 34be 	movw	r4, #7102	; 0x1bbe
 200269c:	461a      	mov	r2, r3
 200269e:	e7ec      	b.n	200267a <fpb_add_patch+0x2a>
 20026a0:	f010 0203 	ands.w	r2, r0, #3
 20026a4:	d1e6      	bne.n	2002674 <fpb_add_patch+0x24>
 20026a6:	4959      	ldr	r1, [pc, #356]	; (200280c <fpb_add_patch+0x1bc>)
 20026a8:	f1a4 7408 	sub.w	r4, r4, #35651584	; 0x2200000
 20026ac:	f5b4 3fa0 	cmp.w	r4, #81920	; 0x14000
 20026b0:	6a0b      	ldr	r3, [r1, #32]
 20026b2:	f040 0001 	orr.w	r0, r0, #1
 20026b6:	6a49      	ldr	r1, [r1, #36]	; 0x24
 20026b8:	d265      	bcs.n	2002786 <fpb_add_patch+0x136>
 20026ba:	4298      	cmp	r0, r3
 20026bc:	d05a      	beq.n	2002774 <fpb_add_patch+0x124>
 20026be:	4288      	cmp	r0, r1
 20026c0:	d058      	beq.n	2002774 <fpb_add_patch+0x124>
 20026c2:	f013 0301 	ands.w	r3, r3, #1
 20026c6:	d001      	beq.n	20026cc <fpb_add_patch+0x7c>
 20026c8:	07c9      	lsls	r1, r1, #31
 20026ca:	d460      	bmi.n	200278e <fpb_add_patch+0x13e>
 20026cc:	f103 0108 	add.w	r1, r3, #8
 20026d0:	f103 6300 	add.w	r3, r3, #134217728	; 0x8000000
 20026d4:	4a4d      	ldr	r2, [pc, #308]	; (200280c <fpb_add_patch+0x1bc>)
 20026d6:	3306      	adds	r3, #6
 20026d8:	009b      	lsls	r3, r3, #2
 20026da:	f842 0021 	str.w	r0, [r2, r1, lsl #2]
 20026de:	2400      	movs	r4, #0
 20026e0:	601d      	str	r5, [r3, #0]
 20026e2:	e7ce      	b.n	2002682 <fpb_add_patch+0x32>
 20026e4:	f10d 010b 	add.w	r1, sp, #11
 20026e8:	9201      	str	r2, [sp, #4]
 20026ea:	f7ff ff6d 	bl	20025c8 <get_instr_reg_index.constprop.0>
 20026ee:	1c43      	adds	r3, r0, #1
 20026f0:	9a01      	ldr	r2, [sp, #4]
 20026f2:	d043      	beq.n	200277c <fpb_add_patch+0x12c>
 20026f4:	3002      	adds	r0, #2
 20026f6:	d104      	bne.n	2002702 <fpb_add_patch+0xb2>
 20026f8:	f641 34bf 	movw	r4, #7103	; 0x1bbf
 20026fc:	f89d 300b 	ldrb.w	r3, [sp, #11]
 2002700:	e7bb      	b.n	200267a <fpb_add_patch+0x2a>
 2002702:	1b29      	subs	r1, r5, r4
 2002704:	d047      	beq.n	2002796 <fpb_add_patch+0x146>
 2002706:	f1b1 7f80 	cmp.w	r1, #16777216	; 0x1000000
 200270a:	dc51      	bgt.n	20027b0 <fpb_add_patch+0x160>
 200270c:	f1b1 4f7f 	cmp.w	r1, #4278190080	; 0xff000000
 2002710:	db5b      	blt.n	20027ca <fpb_add_patch+0x17a>
 2002712:	3904      	subs	r1, #4
 2002714:	0e08      	lsrs	r0, r1, #24
 2002716:	ea80 55d1 	eor.w	r5, r0, r1, lsr #23
 200271a:	0283      	lsls	r3, r0, #10
 200271c:	43ed      	mvns	r5, r5
 200271e:	ea80 5091 	eor.w	r0, r0, r1, lsr #22
 2002722:	43c0      	mvns	r0, r0
 2002724:	f403 6380 	and.w	r3, r3, #1024	; 0x400
 2002728:	f3c1 3c09 	ubfx	ip, r1, #12, #10
 200272c:	ea43 0c0c 	orr.w	ip, r3, ip
 2002730:	036d      	lsls	r5, r5, #13
 2002732:	f3c1 034a 	ubfx	r3, r1, #1, #11
 2002736:	f405 5500 	and.w	r5, r5, #8192	; 0x2000
 200273a:	ea43 430c 	orr.w	r3, r3, ip, lsl #16
 200273e:	02c0      	lsls	r0, r0, #11
 2002740:	432b      	orrs	r3, r5
 2002742:	f400 6000 	and.w	r0, r0, #2048	; 0x800
 2002746:	f89d 600b 	ldrb.w	r6, [sp, #11]
 200274a:	4303      	orrs	r3, r0
 200274c:	f043 4370 	orr.w	r3, r3, #4026531840	; 0xf0000000
 2002750:	f443 4310 	orr.w	r3, r3, #36864	; 0x9000
 2002754:	2efd      	cmp	r6, #253	; 0xfd
 2002756:	ea4f 4533 	mov.w	r5, r3, ror #16
 200275a:	d843      	bhi.n	20027e4 <fpb_add_patch+0x194>
 200275c:	f044 0301 	orr.w	r3, r4, #1
 2002760:	482a      	ldr	r0, [pc, #168]	; (200280c <fpb_add_patch+0x1bc>)
 2002762:	4614      	mov	r4, r2
 2002764:	f106 6200 	add.w	r2, r6, #134217728	; 0x8000000
 2002768:	1cb1      	adds	r1, r6, #2
 200276a:	0092      	lsls	r2, r2, #2
 200276c:	f840 3021 	str.w	r3, [r0, r1, lsl #2]
 2002770:	6015      	str	r5, [r2, #0]
 2002772:	e786      	b.n	2002682 <fpb_add_patch+0x32>
 2002774:	4613      	mov	r3, r2
 2002776:	f641 34bc 	movw	r4, #7100	; 0x1bbc
 200277a:	e77e      	b.n	200267a <fpb_add_patch+0x2a>
 200277c:	f641 34bc 	movw	r4, #7100	; 0x1bbc
 2002780:	f89d 300b 	ldrb.w	r3, [sp, #11]
 2002784:	e779      	b.n	200267a <fpb_add_patch+0x2a>
 2002786:	4613      	mov	r3, r2
 2002788:	f641 34c1 	movw	r4, #7105	; 0x1bc1
 200278c:	e775      	b.n	200267a <fpb_add_patch+0x2a>
 200278e:	4613      	mov	r3, r2
 2002790:	f641 34bf 	movw	r4, #7103	; 0x1bbf
 2002794:	e771      	b.n	200267a <fpb_add_patch+0x2a>
 2002796:	481e      	ldr	r0, [pc, #120]	; (2002810 <fpb_add_patch+0x1c0>)
 2002798:	9201      	str	r2, [sp, #4]
 200279a:	f202 fbab 	bl	2204ef4 <printf>
 200279e:	481d      	ldr	r0, [pc, #116]	; (2002814 <fpb_add_patch+0x1c4>)
 20027a0:	f202 fba8 	bl	2204ef4 <printf>
 20027a4:	f641 34c1 	movw	r4, #7105	; 0x1bc1
 20027a8:	f89d 300b 	ldrb.w	r3, [sp, #11]
 20027ac:	9a01      	ldr	r2, [sp, #4]
 20027ae:	e764      	b.n	200267a <fpb_add_patch+0x2a>
 20027b0:	4817      	ldr	r0, [pc, #92]	; (2002810 <fpb_add_patch+0x1c0>)
 20027b2:	9201      	str	r2, [sp, #4]
 20027b4:	f202 fb9e 	bl	2204ef4 <printf>
 20027b8:	4817      	ldr	r0, [pc, #92]	; (2002818 <fpb_add_patch+0x1c8>)
 20027ba:	f202 fb9b 	bl	2204ef4 <printf>
 20027be:	f641 34c1 	movw	r4, #7105	; 0x1bc1
 20027c2:	f89d 300b 	ldrb.w	r3, [sp, #11]
 20027c6:	9a01      	ldr	r2, [sp, #4]
 20027c8:	e757      	b.n	200267a <fpb_add_patch+0x2a>
 20027ca:	4811      	ldr	r0, [pc, #68]	; (2002810 <fpb_add_patch+0x1c0>)
 20027cc:	9201      	str	r2, [sp, #4]
 20027ce:	f202 fb91 	bl	2204ef4 <printf>
 20027d2:	4812      	ldr	r0, [pc, #72]	; (200281c <fpb_add_patch+0x1cc>)
 20027d4:	f202 fb8e 	bl	2204ef4 <printf>
 20027d8:	f641 34c1 	movw	r4, #7105	; 0x1bc1
 20027dc:	f89d 300b 	ldrb.w	r3, [sp, #11]
 20027e0:	9a01      	ldr	r2, [sp, #4]
 20027e2:	e74a      	b.n	200267a <fpb_add_patch+0x2a>
 20027e4:	480a      	ldr	r0, [pc, #40]	; (2002810 <fpb_add_patch+0x1c0>)
 20027e6:	f202 fb85 	bl	2204ef4 <printf>
 20027ea:	22fe      	movs	r2, #254	; 0xfe
 20027ec:	4631      	mov	r1, r6
 20027ee:	480c      	ldr	r0, [pc, #48]	; (2002820 <fpb_add_patch+0x1d0>)
 20027f0:	f202 fb80 	bl	2204ef4 <printf>
 20027f4:	f641 34bd 	movw	r4, #7101	; 0x1bbd
 20027f8:	462a      	mov	r2, r5
 20027fa:	f89d 300b 	ldrb.w	r3, [sp, #11]
 20027fe:	e73c      	b.n	200267a <fpb_add_patch+0x2a>
 2002800:	f202 fb92 	bl	2204f28 <__stack_chk_fail>
 2002804:	02000498 	.word	0x02000498
 2002808:	02008188 	.word	0x02008188
 200280c:	e0002000 	.word	0xe0002000
 2002810:	020081b0 	.word	0x020081b0
 2002814:	02008140 	.word	0x02008140
 2002818:	0200814c 	.word	0x0200814c
 200281c:	02008160 	.word	0x02008160
 2002820:	02008174 	.word	0x02008174

02002824 <uapi_io_set_driver_strength>:
 2002824:	2903      	cmp	r1, #3
 2002826:	d819      	bhi.n	200285c <uapi_io_set_driver_strength+0x38>
 2002828:	b538      	push	{r3, r4, r5, lr}
 200282a:	f5a0 6300 	sub.w	r3, r0, #2048	; 0x800
 200282e:	f5b3 7fa4 	cmp.w	r3, #328	; 0x148
 2002832:	4604      	mov	r4, r0
 2002834:	d901      	bls.n	200283a <uapi_io_set_driver_strength+0x16>
 2002836:	2001      	movs	r0, #1
 2002838:	bd38      	pop	{r3, r4, r5, pc}
 200283a:	460d      	mov	r5, r1
 200283c:	f104 4480 	add.w	r4, r4, #1073741824	; 0x40000000
 2002840:	f504 3458 	add.w	r4, r4, #221184	; 0x36000
 2002844:	f20c fcf2 	bl	220f22c <uapi_int_lock>
 2002848:	6821      	ldr	r1, [r4, #0]
 200284a:	f021 0130 	bic.w	r1, r1, #48	; 0x30
 200284e:	ea41 1505 	orr.w	r5, r1, r5, lsl #4
 2002852:	6025      	str	r5, [r4, #0]
 2002854:	f20c fcec 	bl	220f230 <uapi_int_restore>
 2002858:	2000      	movs	r0, #0
 200285a:	bd38      	pop	{r3, r4, r5, pc}
 200285c:	2001      	movs	r0, #1
 200285e:	4770      	bx	lr

02002860 <hrtimer_lp_check>:
 2002860:	b500      	push	{lr}
 2002862:	4b17      	ldr	r3, [pc, #92]	; (20028c0 <hrtimer_lp_check+0x60>)
 2002864:	b083      	sub	sp, #12
 2002866:	4668      	mov	r0, sp
 2002868:	681b      	ldr	r3, [r3, #0]
 200286a:	9301      	str	r3, [sp, #4]
 200286c:	f04f 0300 	mov.w	r3, #0
 2002870:	f20a fd4c 	bl	220d30c <uapi_hrtimer_get_current_tick>
 2002874:	b950      	cbnz	r0, 200288c <hrtimer_lp_check+0x2c>
 2002876:	f246 11a7 	movw	r1, #24999	; 0x61a7
 200287a:	9a00      	ldr	r2, [sp, #0]
 200287c:	4b11      	ldr	r3, [pc, #68]	; (20028c4 <hrtimer_lp_check+0x64>)
 200287e:	428a      	cmp	r2, r1
 2002880:	fba3 0302 	umull	r0, r3, r3, r2
 2002884:	ea4f 03d3 	mov.w	r3, r3, lsr #3
 2002888:	9300      	str	r3, [sp, #0]
 200288a:	d90b      	bls.n	20028a4 <hrtimer_lp_check+0x44>
 200288c:	f04f 23e0 	mov.w	r3, #3758153728	; 0xe000e000
 2002890:	4a0d      	ldr	r2, [pc, #52]	; (20028c8 <hrtimer_lp_check+0x68>)
 2002892:	6912      	ldr	r2, [r2, #16]
 2002894:	f8d3 3200 	ldr.w	r3, [r3, #512]	; 0x200
 2002898:	061b      	lsls	r3, r3, #24
 200289a:	d403      	bmi.n	20028a4 <hrtimer_lp_check+0x44>
 200289c:	2a01      	cmp	r2, #1
 200289e:	d001      	beq.n	20028a4 <hrtimer_lp_check+0x44>
 20028a0:	2001      	movs	r0, #1
 20028a2:	e000      	b.n	20028a6 <hrtimer_lp_check+0x46>
 20028a4:	2000      	movs	r0, #0
 20028a6:	4b06      	ldr	r3, [pc, #24]	; (20028c0 <hrtimer_lp_check+0x60>)
 20028a8:	681a      	ldr	r2, [r3, #0]
 20028aa:	9b01      	ldr	r3, [sp, #4]
 20028ac:	405a      	eors	r2, r3
 20028ae:	f04f 0300 	mov.w	r3, #0
 20028b2:	d102      	bne.n	20028ba <hrtimer_lp_check+0x5a>
 20028b4:	b003      	add	sp, #12
 20028b6:	f85d fb04 	ldr.w	pc, [sp], #4
 20028ba:	f202 fb35 	bl	2204f28 <__stack_chk_fail>
 20028be:	bf00      	nop
 20028c0:	02000498 	.word	0x02000498
 20028c4:	51eb851f 	.word	0x51eb851f
 20028c8:	40032000 	.word	0x40032000

020028cc <permit_lowpower>:
 20028cc:	e92d 41f0 	stmdb	sp!, {r4, r5, r6, r7, r8, lr}
 20028d0:	4c3e      	ldr	r4, [pc, #248]	; (20029cc <permit_lowpower+0x100>)
 20028d2:	4606      	mov	r6, r0
 20028d4:	460d      	mov	r5, r1
 20028d6:	7a23      	ldrb	r3, [r4, #8]
 20028d8:	b9e9      	cbnz	r1, 2002916 <permit_lowpower+0x4a>
 20028da:	07d8      	lsls	r0, r3, #31
 20028dc:	d518      	bpl.n	2002910 <permit_lowpower+0x44>
 20028de:	f104 07ce 	add.w	r7, r4, #206	; 0xce
 20028e2:	f104 08d0 	add.w	r8, r4, #208	; 0xd0
 20028e6:	f20c ff0f 	bl	220f708 <uapi_get_tick64>
 20028ea:	2264      	movs	r2, #100	; 0x64
 20028ec:	8963      	ldrh	r3, [r4, #10]
 20028ee:	e9c4 013e 	strd	r0, r1, [r4, #248]	; 0xf8
 20028f2:	fb02 f303 	mul.w	r3, r2, r3
 20028f6:	4298      	cmp	r0, r3
 20028f8:	f171 0300 	sbcs.w	r3, r1, #0
 20028fc:	d308      	bcc.n	2002910 <permit_lowpower+0x44>
 20028fe:	e9d8 2300 	ldrd	r2, r3, [r8]
 2002902:	4290      	cmp	r0, r2
 2002904:	eb71 0303 	sbcs.w	r3, r1, r3
 2002908:	d20c      	bcs.n	2002924 <permit_lowpower+0x58>
 200290a:	783b      	ldrb	r3, [r7, #0]
 200290c:	2b17      	cmp	r3, #23
 200290e:	d918      	bls.n	2002942 <permit_lowpower+0x76>
 2002910:	2000      	movs	r0, #0
 2002912:	e8bd 81f0 	ldmia.w	sp!, {r4, r5, r6, r7, r8, pc}
 2002916:	0799      	lsls	r1, r3, #30
 2002918:	d5fa      	bpl.n	2002910 <permit_lowpower+0x44>
 200291a:	f104 07cf 	add.w	r7, r4, #207	; 0xcf
 200291e:	f104 08d8 	add.w	r8, r4, #216	; 0xd8
 2002922:	e7e0      	b.n	20028e6 <permit_lowpower+0x1a>
 2002924:	e9d4 3006 	ldrd	r3, r0, [r4, #24]
 2002928:	b1a5      	cbz	r5, 2002954 <permit_lowpower+0x88>
 200292a:	2800      	cmp	r0, #0
 200292c:	d13c      	bne.n	20029a8 <permit_lowpower+0xdc>
 200292e:	2305      	movs	r3, #5
 2002930:	42b3      	cmp	r3, r6
 2002932:	d912      	bls.n	200295a <permit_lowpower+0x8e>
 2002934:	f8d4 30c8 	ldr.w	r3, [r4, #200]	; 0xc8
 2002938:	2000      	movs	r0, #0
 200293a:	3301      	adds	r3, #1
 200293c:	f8c4 30c8 	str.w	r3, [r4, #200]	; 0xc8
 2002940:	e7e7      	b.n	2002912 <permit_lowpower+0x46>
 2002942:	3310      	adds	r3, #16
 2002944:	f834 2013 	ldrh.w	r2, [r4, r3, lsl #1]
 2002948:	2000      	movs	r0, #0
 200294a:	3201      	adds	r2, #1
 200294c:	f824 2013 	strh.w	r2, [r4, r3, lsl #1]
 2002950:	e8bd 81f0 	ldmia.w	sp!, {r4, r5, r6, r7, r8, pc}
 2002954:	bb3b      	cbnz	r3, 20029a6 <permit_lowpower+0xda>
 2002956:	2302      	movs	r3, #2
 2002958:	e7ea      	b.n	2002930 <permit_lowpower+0x64>
 200295a:	2600      	movs	r6, #0
 200295c:	4f1c      	ldr	r7, [pc, #112]	; (20029d0 <permit_lowpower+0x104>)
 200295e:	f857 3b04 	ldr.w	r3, [r7], #4
 2002962:	19a2      	adds	r2, r4, r6
 2002964:	b123      	cbz	r3, 2002970 <permit_lowpower+0xa4>
 2002966:	b945      	cbnz	r5, 200297a <permit_lowpower+0xae>
 2002968:	f892 20c0 	ldrb.w	r2, [r2, #192]	; 0xc0
 200296c:	0652      	lsls	r2, r2, #25
 200296e:	d408      	bmi.n	2002982 <permit_lowpower+0xb6>
 2002970:	3601      	adds	r6, #1
 2002972:	2e08      	cmp	r6, #8
 2002974:	d1f3      	bne.n	200295e <permit_lowpower+0x92>
 2002976:	2001      	movs	r0, #1
 2002978:	e7cb      	b.n	2002912 <permit_lowpower+0x46>
 200297a:	f892 20c0 	ldrb.w	r2, [r2, #192]	; 0xc0
 200297e:	09d2      	lsrs	r2, r2, #7
 2002980:	d0f6      	beq.n	2002970 <permit_lowpower+0xa4>
 2002982:	69f8      	ldr	r0, [r7, #28]
 2002984:	4798      	blx	r3
 2002986:	2800      	cmp	r0, #0
 2002988:	d1f2      	bne.n	2002970 <permit_lowpower+0xa4>
 200298a:	4426      	add	r6, r4
 200298c:	f896 30c0 	ldrb.w	r3, [r6, #192]	; 0xc0
 2002990:	f003 033f 	and.w	r3, r3, #63	; 0x3f
 2002994:	2b17      	cmp	r3, #23
 2002996:	d8bb      	bhi.n	2002910 <permit_lowpower+0x44>
 2002998:	3310      	adds	r3, #16
 200299a:	f834 2013 	ldrh.w	r2, [r4, r3, lsl #1]
 200299e:	3201      	adds	r2, #1
 20029a0:	f824 2013 	strh.w	r2, [r4, r3, lsl #1]
 20029a4:	e7b5      	b.n	2002912 <permit_lowpower+0x46>
 20029a6:	4618      	mov	r0, r3
 20029a8:	2300      	movs	r3, #0
 20029aa:	2401      	movs	r4, #1
 20029ac:	4909      	ldr	r1, [pc, #36]	; (20029d4 <permit_lowpower+0x108>)
 20029ae:	fa04 f203 	lsl.w	r2, r4, r3
 20029b2:	4202      	tst	r2, r0
 20029b4:	f103 0301 	add.w	r3, r3, #1
 20029b8:	d002      	beq.n	20029c0 <permit_lowpower+0xf4>
 20029ba:	880a      	ldrh	r2, [r1, #0]
 20029bc:	3201      	adds	r2, #1
 20029be:	800a      	strh	r2, [r1, #0]
 20029c0:	2b18      	cmp	r3, #24
 20029c2:	f101 0102 	add.w	r1, r1, #2
 20029c6:	d1f2      	bne.n	20029ae <permit_lowpower+0xe2>
 20029c8:	e7a2      	b.n	2002910 <permit_lowpower+0x44>
 20029ca:	bf00      	nop
 20029cc:	0200c418 	.word	0x0200c418
 20029d0:	0200c498 	.word	0x0200c498
 20029d4:	0200c438 	.word	0x0200c438

020029d8 <lowpower_deep_sleep_proc>:
 20029d8:	e92d 43f0 	stmdb	sp!, {r4, r5, r6, r7, r8, r9, lr}
 20029dc:	2500      	movs	r5, #0
 20029de:	4b95      	ldr	r3, [pc, #596]	; (2002c34 <lowpower_deep_sleep_proc+0x25c>)
 20029e0:	b083      	sub	sp, #12
 20029e2:	681b      	ldr	r3, [r3, #0]
 20029e4:	9301      	str	r3, [sp, #4]
 20029e6:	f04f 0300 	mov.w	r3, #0
 20029ea:	9500      	str	r5, [sp, #0]
 20029ec:	2900      	cmp	r1, #0
 20029ee:	f000 80cb 	beq.w	2002b88 <lowpower_deep_sleep_proc+0x1b0>
 20029f2:	2a01      	cmp	r2, #1
 20029f4:	f240 80c8 	bls.w	2002b88 <lowpower_deep_sleep_proc+0x1b0>
 20029f8:	4d8f      	ldr	r5, [pc, #572]	; (2002c38 <lowpower_deep_sleep_proc+0x260>)
 20029fa:	4f90      	ldr	r7, [pc, #576]	; (2002c3c <lowpower_deep_sleep_proc+0x264>)
 20029fc:	682b      	ldr	r3, [r5, #0]
 20029fe:	8afa      	ldrh	r2, [r7, #22]
 2002a00:	607b      	str	r3, [r7, #4]
 2002a02:	f04f 23e0 	mov.w	r3, #3758153728	; 0xe000e000
 2002a06:	3201      	adds	r2, #1
 2002a08:	82fa      	strh	r2, [r7, #22]
 2002a0a:	683a      	ldr	r2, [r7, #0]
 2002a0c:	460c      	mov	r4, r1
 2002a0e:	f402 5140 	and.w	r1, r2, #12288	; 0x3000
 2002a12:	4a8b      	ldr	r2, [pc, #556]	; (2002c40 <lowpower_deep_sleep_proc+0x268>)
 2002a14:	404a      	eors	r2, r1
 2002a16:	f8c3 2180 	str.w	r2, [r3, #384]	; 0x180
 2002a1a:	1e43      	subs	r3, r0, #1
 2002a1c:	2b80      	cmp	r3, #128	; 0x80
 2002a1e:	f240 80bd 	bls.w	2002b9c <lowpower_deep_sleep_proc+0x1c4>
 2002a22:	23ff      	movs	r3, #255	; 0xff
 2002a24:	4a87      	ldr	r2, [pc, #540]	; (2002c44 <lowpower_deep_sleep_proc+0x26c>)
 2002a26:	f8c2 30b0 	str.w	r3, [r2, #176]	; 0xb0
 2002a2a:	4a86      	ldr	r2, [pc, #536]	; (2002c44 <lowpower_deep_sleep_proc+0x26c>)
 2002a2c:	6f13      	ldr	r3, [r2, #112]	; 0x70
 2002a2e:	6ed3      	ldr	r3, [r2, #108]	; 0x6c
 2002a30:	f043 0308 	orr.w	r3, r3, #8
 2002a34:	66d3      	str	r3, [r2, #108]	; 0x6c
 2002a36:	6ed3      	ldr	r3, [r2, #108]	; 0x6c
 2002a38:	f013 0308 	ands.w	r3, r3, #8
 2002a3c:	d1fb      	bne.n	2002a36 <lowpower_deep_sleep_proc+0x5e>
 2002a3e:	f44f 70a4 	mov.w	r0, #328	; 0x148
 2002a42:	4981      	ldr	r1, [pc, #516]	; (2002c48 <lowpower_deep_sleep_proc+0x270>)
 2002a44:	6e96      	ldr	r6, [r2, #104]	; 0x68
 2002a46:	66d3      	str	r3, [r2, #108]	; 0x6c
 2002a48:	6a4b      	ldr	r3, [r1, #36]	; 0x24
 2002a4a:	f8df 8200 	ldr.w	r8, [pc, #512]	; 2002c4c <lowpower_deep_sleep_proc+0x274>
 2002a4e:	f443 5380 	orr.w	r3, r3, #4096	; 0x1000
 2002a52:	624b      	str	r3, [r1, #36]	; 0x24
 2002a54:	6650      	str	r0, [r2, #100]	; 0x64
 2002a56:	6ed3      	ldr	r3, [r2, #108]	; 0x6c
 2002a58:	2032      	movs	r0, #50	; 0x32
 2002a5a:	66d3      	str	r3, [r2, #108]	; 0x6c
 2002a5c:	6ed3      	ldr	r3, [r2, #108]	; 0x6c
 2002a5e:	f043 0302 	orr.w	r3, r3, #2
 2002a62:	66d3      	str	r3, [r2, #108]	; 0x6c
 2002a64:	4b7a      	ldr	r3, [pc, #488]	; (2002c50 <lowpower_deep_sleep_proc+0x278>)
 2002a66:	fba3 3606 	umull	r3, r6, r3, r6
 2002a6a:	6ed3      	ldr	r3, [r2, #108]	; 0x6c
 2002a6c:	08f6      	lsrs	r6, r6, #3
 2002a6e:	f043 0301 	orr.w	r3, r3, #1
 2002a72:	66d3      	str	r3, [r2, #108]	; 0x6c
 2002a74:	f20c fe2a 	bl	220f6cc <uapi_udelay>
 2002a78:	4668      	mov	r0, sp
 2002a7a:	f20b feef 	bl	220e85c <uapi_low_accuracy_time_counter_getus>
 2002a7e:	9b00      	ldr	r3, [sp, #0]
 2002a80:	6023      	str	r3, [r4, #0]
 2002a82:	f8d8 3000 	ldr.w	r3, [r8]
 2002a86:	f023 0207 	bic.w	r2, r3, #7
 2002a8a:	f442 6280 	orr.w	r2, r2, #1024	; 0x400
 2002a8e:	f443 6380 	orr.w	r3, r3, #1024	; 0x400
 2002a92:	f8c8 3000 	str.w	r3, [r8]
 2002a96:	f8c8 2000 	str.w	r2, [r8]
 2002a9a:	f8d8 3000 	ldr.w	r3, [r8]
 2002a9e:	f003 0378 	and.w	r3, r3, #120	; 0x78
 2002aa2:	2b08      	cmp	r3, #8
 2002aa4:	d1f9      	bne.n	2002a9a <lowpower_deep_sleep_proc+0xc2>
 2002aa6:	f8df 91a0 	ldr.w	r9, [pc, #416]	; 2002c48 <lowpower_deep_sleep_proc+0x270>
 2002aaa:	f8d9 3008 	ldr.w	r3, [r9, #8]
 2002aae:	f443 1300 	orr.w	r3, r3, #2097152	; 0x200000
 2002ab2:	f8c9 3008 	str.w	r3, [r9, #8]
 2002ab6:	f8d9 305c 	ldr.w	r3, [r9, #92]	; 0x5c
 2002aba:	f023 0301 	bic.w	r3, r3, #1
 2002abe:	f8c9 305c 	str.w	r3, [r9, #92]	; 0x5c
 2002ac2:	f1fd fba5 	bl	2200210 <osEnterSleep>
 2002ac6:	f8d9 305c 	ldr.w	r3, [r9, #92]	; 0x5c
 2002aca:	4a60      	ldr	r2, [pc, #384]	; (2002c4c <lowpower_deep_sleep_proc+0x274>)
 2002acc:	f043 0301 	orr.w	r3, r3, #1
 2002ad0:	f8c9 305c 	str.w	r3, [r9, #92]	; 0x5c
 2002ad4:	f8d9 3008 	ldr.w	r3, [r9, #8]
 2002ad8:	f423 1300 	bic.w	r3, r3, #2097152	; 0x200000
 2002adc:	f8c9 3008 	str.w	r3, [r9, #8]
 2002ae0:	f8d8 3000 	ldr.w	r3, [r8]
 2002ae4:	f423 6380 	bic.w	r3, r3, #1024	; 0x400
 2002ae8:	f023 0307 	bic.w	r3, r3, #7
 2002aec:	f043 0304 	orr.w	r3, r3, #4
 2002af0:	f8c8 3000 	str.w	r3, [r8]
 2002af4:	6813      	ldr	r3, [r2, #0]
 2002af6:	f003 0378 	and.w	r3, r3, #120	; 0x78
 2002afa:	2b20      	cmp	r3, #32
 2002afc:	d1fa      	bne.n	2002af4 <lowpower_deep_sleep_proc+0x11c>
 2002afe:	2032      	movs	r0, #50	; 0x32
 2002b00:	f20c fde4 	bl	220f6cc <uapi_udelay>
 2002b04:	4668      	mov	r0, sp
 2002b06:	f20b fea9 	bl	220e85c <uapi_low_accuracy_time_counter_getus>
 2002b0a:	9b00      	ldr	r3, [sp, #0]
 2002b0c:	2200      	movs	r2, #0
 2002b0e:	6063      	str	r3, [r4, #4]
 2002b10:	6824      	ldr	r4, [r4, #0]
 2002b12:	42a3      	cmp	r3, r4
 2002b14:	bf9a      	itte	ls
 2002b16:	1ae4      	subls	r4, r4, r3
 2002b18:	43e4      	mvnls	r4, r4
 2002b1a:	1b1c      	subhi	r4, r3, r4
 2002b1c:	4b49      	ldr	r3, [pc, #292]	; (2002c44 <lowpower_deep_sleep_proc+0x26c>)
 2002b1e:	42b4      	cmp	r4, r6
 2002b20:	f8c3 20b0 	str.w	r2, [r3, #176]	; 0xb0
 2002b24:	66da      	str	r2, [r3, #108]	; 0x6c
 2002b26:	d841      	bhi.n	2002bac <lowpower_deep_sleep_proc+0x1d4>
 2002b28:	f242 7110 	movw	r1, #10000	; 0x2710
 2002b2c:	4a49      	ldr	r2, [pc, #292]	; (2002c54 <lowpower_deep_sleep_proc+0x27c>)
 2002b2e:	1b36      	subs	r6, r6, r4
 2002b30:	fba2 0206 	umull	r0, r2, r2, r6
 2002b34:	0b52      	lsrs	r2, r2, #13
 2002b36:	fb01 6212 	mls	r2, r1, r2, r6
 2002b3a:	4843      	ldr	r0, [pc, #268]	; (2002c48 <lowpower_deep_sleep_proc+0x270>)
 2002b3c:	eb02 0282 	add.w	r2, r2, r2, lsl #2
 2002b40:	6a41      	ldr	r1, [r0, #36]	; 0x24
 2002b42:	eb02 0282 	add.w	r2, r2, r2, lsl #2
 2002b46:	f5c2 3274 	rsb	r2, r2, #249856	; 0x3d000
 2002b4a:	3290      	adds	r2, #144	; 0x90
 2002b4c:	f421 5180 	bic.w	r1, r1, #4096	; 0x1000
 2002b50:	6241      	str	r1, [r0, #36]	; 0x24
 2002b52:	665a      	str	r2, [r3, #100]	; 0x64
 2002b54:	6eda      	ldr	r2, [r3, #108]	; 0x6c
 2002b56:	66da      	str	r2, [r3, #108]	; 0x6c
 2002b58:	6eda      	ldr	r2, [r3, #108]	; 0x6c
 2002b5a:	f042 0202 	orr.w	r2, r2, #2
 2002b5e:	66da      	str	r2, [r3, #108]	; 0x6c
 2002b60:	6eda      	ldr	r2, [r3, #108]	; 0x6c
 2002b62:	f042 0201 	orr.w	r2, r2, #1
 2002b66:	66da      	str	r2, [r3, #108]	; 0x6c
 2002b68:	f04f 22e0 	mov.w	r2, #3758153728	; 0xe000e000
 2002b6c:	f8d7 30e8 	ldr.w	r3, [r7, #232]	; 0xe8
 2002b70:	6829      	ldr	r1, [r5, #0]
 2002b72:	191b      	adds	r3, r3, r4
 2002b74:	f8c7 30e8 	str.w	r3, [r7, #232]	; 0xe8
 2002b78:	f8d7 30ec 	ldr.w	r3, [r7, #236]	; 0xec
 2002b7c:	f143 0300 	adc.w	r3, r3, #0
 2002b80:	f8c7 30ec 	str.w	r3, [r7, #236]	; 0xec
 2002b84:	f8c2 1100 	str.w	r1, [r2, #256]	; 0x100
 2002b88:	4b2a      	ldr	r3, [pc, #168]	; (2002c34 <lowpower_deep_sleep_proc+0x25c>)
 2002b8a:	681a      	ldr	r2, [r3, #0]
 2002b8c:	9b01      	ldr	r3, [sp, #4]
 2002b8e:	405a      	eors	r2, r3
 2002b90:	f04f 0300 	mov.w	r3, #0
 2002b94:	d14b      	bne.n	2002c2e <lowpower_deep_sleep_proc+0x256>
 2002b96:	b003      	add	sp, #12
 2002b98:	e8bd 83f0 	ldmia.w	sp!, {r4, r5, r6, r7, r8, r9, pc}
 2002b9c:	2b01      	cmp	r3, #1
 2002b9e:	f67f af44 	bls.w	2002a2a <lowpower_deep_sleep_proc+0x52>
 2002ba2:	1e83      	subs	r3, r0, #2
 2002ba4:	005b      	lsls	r3, r3, #1
 2002ba6:	f043 0301 	orr.w	r3, r3, #1
 2002baa:	e73b      	b.n	2002a24 <lowpower_deep_sleep_proc+0x4c>
 2002bac:	f242 7210 	movw	r2, #10000	; 0x2710
 2002bb0:	4828      	ldr	r0, [pc, #160]	; (2002c54 <lowpower_deep_sleep_proc+0x27c>)
 2002bb2:	1ba6      	subs	r6, r4, r6
 2002bb4:	fba0 1806 	umull	r1, r8, r0, r6
 2002bb8:	ea4f 3858 	mov.w	r8, r8, lsr #13
 2002bbc:	fb02 6618 	mls	r6, r2, r8, r6
 2002bc0:	f8df c084 	ldr.w	ip, [pc, #132]	; 2002c48 <lowpower_deep_sleep_proc+0x270>
 2002bc4:	1b92      	subs	r2, r2, r6
 2002bc6:	f8dc 1024 	ldr.w	r1, [ip, #36]	; 0x24
 2002bca:	4823      	ldr	r0, [pc, #140]	; (2002c58 <lowpower_deep_sleep_proc+0x280>)
 2002bcc:	eb02 0282 	add.w	r2, r2, r2, lsl #2
 2002bd0:	eb02 0282 	add.w	r2, r2, r2, lsl #2
 2002bd4:	f421 5180 	bic.w	r1, r1, #4096	; 0x1000
 2002bd8:	1a82      	subs	r2, r0, r2
 2002bda:	f8cc 1024 	str.w	r1, [ip, #36]	; 0x24
 2002bde:	665a      	str	r2, [r3, #100]	; 0x64
 2002be0:	6eda      	ldr	r2, [r3, #108]	; 0x6c
 2002be2:	fb08 0000 	mla	r0, r8, r0, r0
 2002be6:	66da      	str	r2, [r3, #108]	; 0x6c
 2002be8:	6eda      	ldr	r2, [r3, #108]	; 0x6c
 2002bea:	f042 0202 	orr.w	r2, r2, #2
 2002bee:	66da      	str	r2, [r3, #108]	; 0x6c
 2002bf0:	6eda      	ldr	r2, [r3, #108]	; 0x6c
 2002bf2:	f042 0201 	orr.w	r2, r2, #1
 2002bf6:	66da      	str	r2, [r3, #108]	; 0x6c
 2002bf8:	f20a fb62 	bl	220d2c0 <uapi_hrtimer_refresh_tick>
 2002bfc:	4a17      	ldr	r2, [pc, #92]	; (2002c5c <lowpower_deep_sleep_proc+0x284>)
 2002bfe:	4b18      	ldr	r3, [pc, #96]	; (2002c60 <lowpower_deep_sleep_proc+0x288>)
 2002c00:	f108 0001 	add.w	r0, r8, #1
 2002c04:	681e      	ldr	r6, [r3, #0]
 2002c06:	e9d2 3100 	ldrd	r3, r1, [r2]
 2002c0a:	181b      	adds	r3, r3, r0
 2002c0c:	f141 0100 	adc.w	r1, r1, #0
 2002c10:	6013      	str	r3, [r2, #0]
 2002c12:	6051      	str	r1, [r2, #4]
 2002c14:	f108 0002 	add.w	r0, r8, #2
 2002c18:	b136      	cbz	r6, 2002c28 <lowpower_deep_sleep_proc+0x250>
 2002c1a:	68b2      	ldr	r2, [r6, #8]
 2002c1c:	1c53      	adds	r3, r2, #1
 2002c1e:	4290      	cmp	r0, r2
 2002c20:	bf94      	ite	ls
 2002c22:	1a1b      	subls	r3, r3, r0
 2002c24:	1a9b      	subhi	r3, r3, r2
 2002c26:	60b3      	str	r3, [r6, #8]
 2002c28:	f1fe f9ba 	bl	2200fa0 <osTskSortLinkUpdate>
 2002c2c:	e79c      	b.n	2002b68 <lowpower_deep_sleep_proc+0x190>
 2002c2e:	f202 f97b 	bl	2204f28 <__stack_chk_fail>
 2002c32:	bf00      	nop
 2002c34:	02000498 	.word	0x02000498
 2002c38:	0200c414 	.word	0x0200c414
 2002c3c:	0200c418 	.word	0x0200c418
 2002c40:	0001ffff 	.word	0x0001ffff
 2002c44:	40032000 	.word	0x40032000
 2002c48:	4003b000 	.word	0x4003b000
 2002c4c:	40030000 	.word	0x40030000
 2002c50:	51eb851f 	.word	0x51eb851f
 2002c54:	d1b71759 	.word	0xd1b71759
 2002c58:	0003d090 	.word	0x0003d090
 2002c5c:	020011a8 	.word	0x020011a8
 2002c60:	0200115c 	.word	0x0200115c

02002c64 <uapi_lowpower_init>:
 2002c64:	b470      	push	{r4, r5, r6}
 2002c66:	4b32      	ldr	r3, [pc, #200]	; (2002d30 <uapi_lowpower_init+0xcc>)
 2002c68:	4c32      	ldr	r4, [pc, #200]	; (2002d34 <uapi_lowpower_init+0xd0>)
 2002c6a:	f894 c000 	ldrb.w	ip, [r4]
 2002c6e:	7a1c      	ldrb	r4, [r3, #8]
 2002c70:	ea01 010c 	and.w	r1, r1, ip
 2002c74:	0764      	lsls	r4, r4, #29
 2002c76:	d455      	bmi.n	2002d24 <uapi_lowpower_init+0xc0>
 2002c78:	2800      	cmp	r0, #0
 2002c7a:	d03c      	beq.n	2002cf6 <uapi_lowpower_init+0x92>
 2002c7c:	4d2e      	ldr	r5, [pc, #184]	; (2002d38 <uapi_lowpower_init+0xd4>)
 2002c7e:	4e2f      	ldr	r6, [pc, #188]	; (2002d3c <uapi_lowpower_init+0xd8>)
 2002c80:	692c      	ldr	r4, [r5, #16]
 2002c82:	ea04 0c06 	and.w	ip, r4, r6
 2002c86:	4c2e      	ldr	r4, [pc, #184]	; (2002d40 <uapi_lowpower_init+0xdc>)
 2002c88:	ea4c 0404 	orr.w	r4, ip, r4
 2002c8c:	612c      	str	r4, [r5, #16]
 2002c8e:	696e      	ldr	r6, [r5, #20]
 2002c90:	4c2c      	ldr	r4, [pc, #176]	; (2002d44 <uapi_lowpower_init+0xe0>)
 2002c92:	4034      	ands	r4, r6
 2002c94:	f444 24ff 	orr.w	r4, r4, #522240	; 0x7f800
 2002c98:	f444 7438 	orr.w	r4, r4, #736	; 0x2e0
 2002c9c:	616c      	str	r4, [r5, #20]
 2002c9e:	2900      	cmp	r1, #0
 2002ca0:	d13a      	bne.n	2002d18 <uapi_lowpower_init+0xb4>
 2002ca2:	4c29      	ldr	r4, [pc, #164]	; (2002d48 <uapi_lowpower_init+0xe4>)
 2002ca4:	f893 c008 	ldrb.w	ip, [r3, #8]
 2002ca8:	0049      	lsls	r1, r1, #1
 2002caa:	f000 0001 	and.w	r0, r0, #1
 2002cae:	f001 0102 	and.w	r1, r1, #2
 2002cb2:	815a      	strh	r2, [r3, #10]
 2002cb4:	7822      	ldrb	r2, [r4, #0]
 2002cb6:	4301      	orrs	r1, r0
 2002cb8:	f02c 0003 	bic.w	r0, ip, #3
 2002cbc:	4301      	orrs	r1, r0
 2002cbe:	2a07      	cmp	r2, #7
 2002cc0:	7219      	strb	r1, [r3, #8]
 2002cc2:	d832      	bhi.n	2002d2a <uapi_lowpower_init+0xc6>
 2002cc4:	2000      	movs	r0, #0
 2002cc6:	f04f 0cc7 	mov.w	ip, #199	; 0xc7
 2002cca:	4d20      	ldr	r5, [pc, #128]	; (2002d4c <uapi_lowpower_init+0xe8>)
 2002ccc:	f102 0120 	add.w	r1, r2, #32
 2002cd0:	f843 5021 	str.w	r5, [r3, r1, lsl #2]
 2002cd4:	8919      	ldrh	r1, [r3, #8]
 2002cd6:	f102 0528 	add.w	r5, r2, #40	; 0x28
 2002cda:	f001 0103 	and.w	r1, r1, #3
 2002cde:	f041 010c 	orr.w	r1, r1, #12
 2002ce2:	8119      	strh	r1, [r3, #8]
 2002ce4:	1899      	adds	r1, r3, r2
 2002ce6:	3201      	adds	r2, #1
 2002ce8:	f881 c0c0 	strb.w	ip, [r1, #192]	; 0xc0
 2002cec:	f843 0025 	str.w	r0, [r3, r5, lsl #2]
 2002cf0:	7022      	strb	r2, [r4, #0]
 2002cf2:	bc70      	pop	{r4, r5, r6}
 2002cf4:	4770      	bx	lr
 2002cf6:	2900      	cmp	r1, #0
 2002cf8:	d0d3      	beq.n	2002ca2 <uapi_lowpower_init+0x3e>
 2002cfa:	4d0f      	ldr	r5, [pc, #60]	; (2002d38 <uapi_lowpower_init+0xd4>)
 2002cfc:	4c0f      	ldr	r4, [pc, #60]	; (2002d3c <uapi_lowpower_init+0xd8>)
 2002cfe:	692e      	ldr	r6, [r5, #16]
 2002d00:	4026      	ands	r6, r4
 2002d02:	4c0f      	ldr	r4, [pc, #60]	; (2002d40 <uapi_lowpower_init+0xdc>)
 2002d04:	4334      	orrs	r4, r6
 2002d06:	612c      	str	r4, [r5, #16]
 2002d08:	696e      	ldr	r6, [r5, #20]
 2002d0a:	4c0e      	ldr	r4, [pc, #56]	; (2002d44 <uapi_lowpower_init+0xe0>)
 2002d0c:	4034      	ands	r4, r6
 2002d0e:	f444 24ff 	orr.w	r4, r4, #522240	; 0x7f800
 2002d12:	f444 7438 	orr.w	r4, r4, #736	; 0x2e0
 2002d16:	616c      	str	r4, [r5, #20]
 2002d18:	251f      	movs	r5, #31
 2002d1a:	4c0d      	ldr	r4, [pc, #52]	; (2002d50 <uapi_lowpower_init+0xec>)
 2002d1c:	4e0d      	ldr	r6, [pc, #52]	; (2002d54 <uapi_lowpower_init+0xf0>)
 2002d1e:	64e6      	str	r6, [r4, #76]	; 0x4c
 2002d20:	6525      	str	r5, [r4, #80]	; 0x50
 2002d22:	e7be      	b.n	2002ca2 <uapi_lowpower_init+0x3e>
 2002d24:	201c      	movs	r0, #28
 2002d26:	bc70      	pop	{r4, r5, r6}
 2002d28:	4770      	bx	lr
 2002d2a:	2007      	movs	r0, #7
 2002d2c:	bc70      	pop	{r4, r5, r6}
 2002d2e:	4770      	bx	lr
 2002d30:	0200c418 	.word	0x0200c418
 2002d34:	0200c40e 	.word	0x0200c40e
 2002d38:	40030000 	.word	0x40030000
 2002d3c:	f0000007 	.word	0xf0000007
 2002d40:	0fdf1590 	.word	0x0fdf1590
 2002d44:	ffd80007 	.word	0xffd80007
 2002d48:	0200c518 	.word	0x0200c518
 2002d4c:	02002861 	.word	0x02002861
 2002d50:	4003b000 	.word	0x4003b000
 2002d54:	8fab09f4 	.word	0x8fab09f4

02002d58 <uapi_lowpower_forbid>:
 2002d58:	2817      	cmp	r0, #23
 2002d5a:	d901      	bls.n	2002d60 <uapi_lowpower_forbid+0x8>
 2002d5c:	2001      	movs	r0, #1
 2002d5e:	4770      	bx	lr
 2002d60:	b538      	push	{r3, r4, r5, lr}
 2002d62:	460c      	mov	r4, r1
 2002d64:	4605      	mov	r5, r0
 2002d66:	f1fd f97b 	bl	2200060 <LOS_IntLock>
 2002d6a:	b964      	cbnz	r4, 2002d86 <uapi_lowpower_forbid+0x2e>
 2002d6c:	4b0f      	ldr	r3, [pc, #60]	; (2002dac <uapi_lowpower_forbid+0x54>)
 2002d6e:	7a1a      	ldrb	r2, [r3, #8]
 2002d70:	07d1      	lsls	r1, r2, #31
 2002d72:	d516      	bpl.n	2002da2 <uapi_lowpower_forbid+0x4a>
 2002d74:	2401      	movs	r4, #1
 2002d76:	699a      	ldr	r2, [r3, #24]
 2002d78:	40ac      	lsls	r4, r5
 2002d7a:	4322      	orrs	r2, r4
 2002d7c:	619a      	str	r2, [r3, #24]
 2002d7e:	f1fd f97f 	bl	2200080 <LOS_IntRestore>
 2002d82:	2000      	movs	r0, #0
 2002d84:	bd38      	pop	{r3, r4, r5, pc}
 2002d86:	2c01      	cmp	r4, #1
 2002d88:	d10b      	bne.n	2002da2 <uapi_lowpower_forbid+0x4a>
 2002d8a:	4b08      	ldr	r3, [pc, #32]	; (2002dac <uapi_lowpower_forbid+0x54>)
 2002d8c:	7a1a      	ldrb	r2, [r3, #8]
 2002d8e:	0792      	lsls	r2, r2, #30
 2002d90:	d507      	bpl.n	2002da2 <uapi_lowpower_forbid+0x4a>
 2002d92:	69da      	ldr	r2, [r3, #28]
 2002d94:	40ac      	lsls	r4, r5
 2002d96:	4314      	orrs	r4, r2
 2002d98:	61dc      	str	r4, [r3, #28]
 2002d9a:	f1fd f971 	bl	2200080 <LOS_IntRestore>
 2002d9e:	2000      	movs	r0, #0
 2002da0:	bd38      	pop	{r3, r4, r5, pc}
 2002da2:	f1fd f96d 	bl	2200080 <LOS_IntRestore>
 2002da6:	2028      	movs	r0, #40	; 0x28
 2002da8:	bd38      	pop	{r3, r4, r5, pc}
 2002daa:	bf00      	nop
 2002dac:	0200c418 	.word	0x0200c418

02002db0 <uapi_lowpower_unforbid>:
 2002db0:	2817      	cmp	r0, #23
 2002db2:	d901      	bls.n	2002db8 <uapi_lowpower_unforbid+0x8>
 2002db4:	2001      	movs	r0, #1
 2002db6:	4770      	bx	lr
 2002db8:	e92d 41f0 	stmdb	sp!, {r4, r5, r6, r7, r8, lr}
 2002dbc:	4605      	mov	r5, r0
 2002dbe:	460c      	mov	r4, r1
 2002dc0:	4616      	mov	r6, r2
 2002dc2:	f1fd f94d 	bl	2200060 <LOS_IntLock>
 2002dc6:	4607      	mov	r7, r0
 2002dc8:	b984      	cbnz	r4, 2002dec <uapi_lowpower_unforbid+0x3c>
 2002dca:	4c2a      	ldr	r4, [pc, #168]	; (2002e74 <uapi_lowpower_unforbid+0xc4>)
 2002dcc:	7a23      	ldrb	r3, [r4, #8]
 2002dce:	07d8      	lsls	r0, r3, #31
 2002dd0:	d534      	bpl.n	2002e3c <uapi_lowpower_unforbid+0x8c>
 2002dd2:	2201      	movs	r2, #1
 2002dd4:	69a3      	ldr	r3, [r4, #24]
 2002dd6:	40aa      	lsls	r2, r5
 2002dd8:	ea23 0302 	bic.w	r3, r3, r2
 2002ddc:	61a3      	str	r3, [r4, #24]
 2002dde:	bb9e      	cbnz	r6, 2002e48 <uapi_lowpower_unforbid+0x98>
 2002de0:	4638      	mov	r0, r7
 2002de2:	f1fd f94d 	bl	2200080 <LOS_IntRestore>
 2002de6:	2000      	movs	r0, #0
 2002de8:	e8bd 81f0 	ldmia.w	sp!, {r4, r5, r6, r7, r8, pc}
 2002dec:	2c01      	cmp	r4, #1
 2002dee:	d125      	bne.n	2002e3c <uapi_lowpower_unforbid+0x8c>
 2002df0:	f8df 8080 	ldr.w	r8, [pc, #128]	; 2002e74 <uapi_lowpower_unforbid+0xc4>
 2002df4:	f898 3008 	ldrb.w	r3, [r8, #8]
 2002df8:	0799      	lsls	r1, r3, #30
 2002dfa:	d51f      	bpl.n	2002e3c <uapi_lowpower_unforbid+0x8c>
 2002dfc:	f8d8 301c 	ldr.w	r3, [r8, #28]
 2002e00:	40ac      	lsls	r4, r5
 2002e02:	ea23 0404 	bic.w	r4, r3, r4
 2002e06:	f8c8 401c 	str.w	r4, [r8, #28]
 2002e0a:	2e00      	cmp	r6, #0
 2002e0c:	d0e8      	beq.n	2002de0 <uapi_lowpower_unforbid+0x30>
 2002e0e:	f20c fc7b 	bl	220f708 <uapi_get_tick64>
 2002e12:	f898 3008 	ldrb.w	r3, [r8, #8]
 2002e16:	079a      	lsls	r2, r3, #30
 2002e18:	d5e2      	bpl.n	2002de0 <uapi_lowpower_unforbid+0x30>
 2002e1a:	4b17      	ldr	r3, [pc, #92]	; (2002e78 <uapi_lowpower_unforbid+0xc8>)
 2002e1c:	fba3 2306 	umull	r2, r3, r3, r6
 2002e20:	08db      	lsrs	r3, r3, #3
 2002e22:	1818      	adds	r0, r3, r0
 2002e24:	f141 0100 	adc.w	r1, r1, #0
 2002e28:	e9d8 2336 	ldrd	r2, r3, [r8, #216]	; 0xd8
 2002e2c:	4282      	cmp	r2, r0
 2002e2e:	418b      	sbcs	r3, r1
 2002e30:	bf3c      	itt	cc
 2002e32:	e9c8 0136 	strdcc	r0, r1, [r8, #216]	; 0xd8
 2002e36:	f888 50cf 	strbcc.w	r5, [r8, #207]	; 0xcf
 2002e3a:	e7d1      	b.n	2002de0 <uapi_lowpower_unforbid+0x30>
 2002e3c:	4638      	mov	r0, r7
 2002e3e:	f1fd f91f 	bl	2200080 <LOS_IntRestore>
 2002e42:	2028      	movs	r0, #40	; 0x28
 2002e44:	e8bd 81f0 	ldmia.w	sp!, {r4, r5, r6, r7, r8, pc}
 2002e48:	f20c fc5e 	bl	220f708 <uapi_get_tick64>
 2002e4c:	7a23      	ldrb	r3, [r4, #8]
 2002e4e:	079b      	lsls	r3, r3, #30
 2002e50:	d5c6      	bpl.n	2002de0 <uapi_lowpower_unforbid+0x30>
 2002e52:	4b09      	ldr	r3, [pc, #36]	; (2002e78 <uapi_lowpower_unforbid+0xc8>)
 2002e54:	fba3 3606 	umull	r3, r6, r3, r6
 2002e58:	08f2      	lsrs	r2, r6, #3
 2002e5a:	1812      	adds	r2, r2, r0
 2002e5c:	f141 0100 	adc.w	r1, r1, #0
 2002e60:	e9d4 0334 	ldrd	r0, r3, [r4, #208]	; 0xd0
 2002e64:	4290      	cmp	r0, r2
 2002e66:	418b      	sbcs	r3, r1
 2002e68:	d2ba      	bcs.n	2002de0 <uapi_lowpower_unforbid+0x30>
 2002e6a:	e9c4 2134 	strd	r2, r1, [r4, #208]	; 0xd0
 2002e6e:	f884 50ce 	strb.w	r5, [r4, #206]	; 0xce
 2002e72:	e7b5      	b.n	2002de0 <uapi_lowpower_unforbid+0x30>
 2002e74:	0200c418 	.word	0x0200c418
 2002e78:	cccccccd 	.word	0xcccccccd

02002e7c <uapi_lowpower_register_checkfunc>:
 2002e7c:	f000 033f 	and.w	r3, r0, #63	; 0x3f
 2002e80:	2b17      	cmp	r3, #23
 2002e82:	d816      	bhi.n	2002eb2 <uapi_lowpower_register_checkfunc+0x36>
 2002e84:	b1a9      	cbz	r1, 2002eb2 <uapi_lowpower_register_checkfunc+0x36>
 2002e86:	b430      	push	{r4, r5}
 2002e88:	4d0c      	ldr	r5, [pc, #48]	; (2002ebc <uapi_lowpower_register_checkfunc+0x40>)
 2002e8a:	782b      	ldrb	r3, [r5, #0]
 2002e8c:	2b07      	cmp	r3, #7
 2002e8e:	d812      	bhi.n	2002eb6 <uapi_lowpower_register_checkfunc+0x3a>
 2002e90:	4c0b      	ldr	r4, [pc, #44]	; (2002ec0 <uapi_lowpower_register_checkfunc+0x44>)
 2002e92:	f103 0c20 	add.w	ip, r3, #32
 2002e96:	f844 102c 	str.w	r1, [r4, ip, lsl #2]
 2002e9a:	f103 0128 	add.w	r1, r3, #40	; 0x28
 2002e9e:	f844 2021 	str.w	r2, [r4, r1, lsl #2]
 2002ea2:	441c      	add	r4, r3
 2002ea4:	f884 00c0 	strb.w	r0, [r4, #192]	; 0xc0
 2002ea8:	3301      	adds	r3, #1
 2002eaa:	2000      	movs	r0, #0
 2002eac:	702b      	strb	r3, [r5, #0]
 2002eae:	bc30      	pop	{r4, r5}
 2002eb0:	4770      	bx	lr
 2002eb2:	2001      	movs	r0, #1
 2002eb4:	4770      	bx	lr
 2002eb6:	2007      	movs	r0, #7
 2002eb8:	bc30      	pop	{r4, r5}
 2002eba:	4770      	bx	lr
 2002ebc:	0200c518 	.word	0x0200c518
 2002ec0:	0200c418 	.word	0x0200c418

02002ec4 <uapi_lowpower_wakeup_config>:
 2002ec4:	2810      	cmp	r0, #16
 2002ec6:	d818      	bhi.n	2002efa <uapi_lowpower_wakeup_config+0x36>
 2002ec8:	4603      	mov	r3, r0
 2002eca:	b410      	push	{r4}
 2002ecc:	b959      	cbnz	r1, 2002ee6 <uapi_lowpower_wakeup_config+0x22>
 2002ece:	f04f 0c01 	mov.w	ip, #1
 2002ed2:	4c0b      	ldr	r4, [pc, #44]	; (2002f00 <uapi_lowpower_wakeup_config+0x3c>)
 2002ed4:	fa0c f303 	lsl.w	r3, ip, r3
 2002ed8:	6822      	ldr	r2, [r4, #0]
 2002eda:	4608      	mov	r0, r1
 2002edc:	ea22 0203 	bic.w	r2, r2, r3
 2002ee0:	6022      	str	r2, [r4, #0]
 2002ee2:	bc10      	pop	{r4}
 2002ee4:	4770      	bx	lr
 2002ee6:	2101      	movs	r1, #1
 2002ee8:	4c05      	ldr	r4, [pc, #20]	; (2002f00 <uapi_lowpower_wakeup_config+0x3c>)
 2002eea:	fa01 f303 	lsl.w	r3, r1, r3
 2002eee:	6822      	ldr	r2, [r4, #0]
 2002ef0:	2000      	movs	r0, #0
 2002ef2:	431a      	orrs	r2, r3
 2002ef4:	6022      	str	r2, [r4, #0]
 2002ef6:	bc10      	pop	{r4}
 2002ef8:	4770      	bx	lr
 2002efa:	2031      	movs	r0, #49	; 0x31
 2002efc:	4770      	bx	lr
 2002efe:	bf00      	nop
 2002f00:	0200c418 	.word	0x0200c418

02002f04 <uapi_init_lowpower_deep_sleep_proc>:
 2002f04:	2201      	movs	r2, #1
 2002f06:	4903      	ldr	r1, [pc, #12]	; (2002f14 <uapi_init_lowpower_deep_sleep_proc+0x10>)
 2002f08:	4803      	ldr	r0, [pc, #12]	; (2002f18 <uapi_init_lowpower_deep_sleep_proc+0x14>)
 2002f0a:	4b04      	ldr	r3, [pc, #16]	; (2002f1c <uapi_init_lowpower_deep_sleep_proc+0x18>)
 2002f0c:	6008      	str	r0, [r1, #0]
 2002f0e:	701a      	strb	r2, [r3, #0]
 2002f10:	4770      	bx	lr
 2002f12:	bf00      	nop
 2002f14:	0200c410 	.word	0x0200c410
 2002f18:	020029d9 	.word	0x020029d9
 2002f1c:	0200c40e 	.word	0x0200c40e

02002f20 <uapi_lowpower_handle>:
 2002f20:	2300      	movs	r3, #0
 2002f22:	e92d 47f0 	stmdb	sp!, {r4, r5, r6, r7, r8, r9, sl, lr}
 2002f26:	4a98      	ldr	r2, [pc, #608]	; (2003188 <uapi_lowpower_handle+0x268>)
 2002f28:	4c98      	ldr	r4, [pc, #608]	; (200318c <uapi_lowpower_handle+0x26c>)
 2002f2a:	b084      	sub	sp, #16
 2002f2c:	6812      	ldr	r2, [r2, #0]
 2002f2e:	9203      	str	r2, [sp, #12]
 2002f30:	f04f 0200 	mov.w	r2, #0
 2002f34:	7a22      	ldrb	r2, [r4, #8]
 2002f36:	9301      	str	r3, [sp, #4]
 2002f38:	9302      	str	r3, [sp, #8]
 2002f3a:	0793      	lsls	r3, r2, #30
 2002f3c:	d10a      	bne.n	2002f54 <uapi_lowpower_handle+0x34>
 2002f3e:	4b92      	ldr	r3, [pc, #584]	; (2003188 <uapi_lowpower_handle+0x268>)
 2002f40:	681a      	ldr	r2, [r3, #0]
 2002f42:	9b03      	ldr	r3, [sp, #12]
 2002f44:	405a      	eors	r2, r3
 2002f46:	f04f 0300 	mov.w	r3, #0
 2002f4a:	f040 811a 	bne.w	2003182 <uapi_lowpower_handle+0x262>
 2002f4e:	b004      	add	sp, #16
 2002f50:	e8bd 87f0 	ldmia.w	sp!, {r4, r5, r6, r7, r8, r9, sl, pc}
 2002f54:	f1fd f884 	bl	2200060 <LOS_IntLock>
 2002f58:	4606      	mov	r6, r0
 2002f5a:	4a8d      	ldr	r2, [pc, #564]	; (2003190 <uapi_lowpower_handle+0x270>)
 2002f5c:	6ed3      	ldr	r3, [r2, #108]	; 0x6c
 2002f5e:	f043 0308 	orr.w	r3, r3, #8
 2002f62:	66d3      	str	r3, [r2, #108]	; 0x6c
 2002f64:	6ed3      	ldr	r3, [r2, #108]	; 0x6c
 2002f66:	071f      	lsls	r7, r3, #28
 2002f68:	d4fc      	bmi.n	2002f64 <uapi_lowpower_handle+0x44>
 2002f6a:	f641 534b 	movw	r3, #7499	; 0x1d4b
 2002f6e:	6e91      	ldr	r1, [r2, #104]	; 0x68
 2002f70:	4299      	cmp	r1, r3
 2002f72:	d936      	bls.n	2002fe2 <uapi_lowpower_handle+0xc2>
 2002f74:	f04f 23e0 	mov.w	r3, #3758153728	; 0xe000e000
 2002f78:	f8d3 3200 	ldr.w	r3, [r3, #512]	; 0x200
 2002f7c:	6f52      	ldr	r2, [r2, #116]	; 0x74
 2002f7e:	04dd      	lsls	r5, r3, #19
 2002f80:	d42f      	bmi.n	2002fe2 <uapi_lowpower_handle+0xc2>
 2002f82:	2a01      	cmp	r2, #1
 2002f84:	d02d      	beq.n	2002fe2 <uapi_lowpower_handle+0xc2>
 2002f86:	f1fd fcef 	bl	2200968 <osSwTmrGetNextTimeout>
 2002f8a:	4605      	mov	r5, r0
 2002f8c:	f1fd ffde 	bl	2200f4c <osTskSortLinkTicksGet>
 2002f90:	bb80      	cbnz	r0, 2002ff4 <uapi_lowpower_handle+0xd4>
 2002f92:	f20b fc67 	bl	220e864 <uapi_watchdog_feed>
 2002f96:	2101      	movs	r1, #1
 2002f98:	4628      	mov	r0, r5
 2002f9a:	f7ff fc97 	bl	20028cc <permit_lowpower>
 2002f9e:	2801      	cmp	r0, #1
 2002fa0:	d12c      	bne.n	2002ffc <uapi_lowpower_handle+0xdc>
 2002fa2:	4b7c      	ldr	r3, [pc, #496]	; (2003194 <uapi_lowpower_handle+0x274>)
 2002fa4:	681b      	ldr	r3, [r3, #0]
 2002fa6:	2b00      	cmp	r3, #0
 2002fa8:	f000 80e8 	beq.w	200317c <uapi_lowpower_handle+0x25c>
 2002fac:	4628      	mov	r0, r5
 2002fae:	2202      	movs	r2, #2
 2002fb0:	a901      	add	r1, sp, #4
 2002fb2:	4798      	blx	r3
 2002fb4:	9801      	ldr	r0, [sp, #4]
 2002fb6:	9d02      	ldr	r5, [sp, #8]
 2002fb8:	68e3      	ldr	r3, [r4, #12]
 2002fba:	f8d4 20f0 	ldr.w	r2, [r4, #240]	; 0xf0
 2002fbe:	4283      	cmp	r3, r0
 2002fc0:	bf24      	itt	cs
 2002fc2:	1a1b      	subcs	r3, r3, r0
 2002fc4:	43db      	mvncs	r3, r3
 2002fc6:	f8d4 10f4 	ldr.w	r1, [r4, #244]	; 0xf4
 2002fca:	bf38      	it	cc
 2002fcc:	1ac3      	subcc	r3, r0, r3
 2002fce:	18d3      	adds	r3, r2, r3
 2002fd0:	f141 0100 	adc.w	r1, r1, #0
 2002fd4:	4630      	mov	r0, r6
 2002fd6:	e9c4 313c 	strd	r3, r1, [r4, #240]	; 0xf0
 2002fda:	60e5      	str	r5, [r4, #12]
 2002fdc:	f1fd f850 	bl	2200080 <LOS_IntRestore>
 2002fe0:	e7ad      	b.n	2002f3e <uapi_lowpower_handle+0x1e>
 2002fe2:	f8b4 30cc 	ldrh.w	r3, [r4, #204]	; 0xcc
 2002fe6:	4630      	mov	r0, r6
 2002fe8:	3301      	adds	r3, #1
 2002fea:	f8a4 30cc 	strh.w	r3, [r4, #204]	; 0xcc
 2002fee:	f1fd f847 	bl	2200080 <LOS_IntRestore>
 2002ff2:	e7a4      	b.n	2002f3e <uapi_lowpower_handle+0x1e>
 2002ff4:	4285      	cmp	r5, r0
 2002ff6:	bf28      	it	cs
 2002ff8:	4605      	movcs	r5, r0
 2002ffa:	e7ca      	b.n	2002f92 <uapi_lowpower_handle+0x72>
 2002ffc:	2100      	movs	r1, #0
 2002ffe:	4628      	mov	r0, r5
 2003000:	f7ff fc64 	bl	20028cc <permit_lowpower>
 2003004:	2801      	cmp	r0, #1
 2003006:	f040 8092 	bne.w	200312e <uapi_lowpower_handle+0x20e>
 200300a:	8aa3      	ldrh	r3, [r4, #20]
 200300c:	2100      	movs	r1, #0
 200300e:	3301      	adds	r3, #1
 2003010:	82a3      	strh	r3, [r4, #20]
 2003012:	6823      	ldr	r3, [r4, #0]
 2003014:	f04f 22e0 	mov.w	r2, #3758153728	; 0xe000e000
 2003018:	43db      	mvns	r3, r3
 200301a:	4f5f      	ldr	r7, [pc, #380]	; (2003198 <uapi_lowpower_handle+0x278>)
 200301c:	f3c3 0310 	ubfx	r3, r3, #0, #17
 2003020:	6838      	ldr	r0, [r7, #0]
 2003022:	2d80      	cmp	r5, #128	; 0x80
 2003024:	6060      	str	r0, [r4, #4]
 2003026:	9100      	str	r1, [sp, #0]
 2003028:	f8c2 3180 	str.w	r3, [r2, #384]	; 0x180
 200302c:	d807      	bhi.n	200303e <uapi_lowpower_handle+0x11e>
 200302e:	2d01      	cmp	r5, #1
 2003030:	f240 8086 	bls.w	2003140 <uapi_lowpower_handle+0x220>
 2003034:	1e6b      	subs	r3, r5, #1
 2003036:	005b      	lsls	r3, r3, #1
 2003038:	f043 0301 	orr.w	r3, r3, #1
 200303c:	e000      	b.n	2003040 <uapi_lowpower_handle+0x120>
 200303e:	23ff      	movs	r3, #255	; 0xff
 2003040:	f8df a14c 	ldr.w	sl, [pc, #332]	; 2003190 <uapi_lowpower_handle+0x270>
 2003044:	4668      	mov	r0, sp
 2003046:	f8ca 30b0 	str.w	r3, [sl, #176]	; 0xb0
 200304a:	f20b fba1 	bl	220e790 <uapi_time_counter_getus>
 200304e:	9b00      	ldr	r3, [sp, #0]
 2003050:	f8df 8148 	ldr.w	r8, [pc, #328]	; 200319c <uapi_lowpower_handle+0x27c>
 2003054:	9301      	str	r3, [sp, #4]
 2003056:	f8d8 9024 	ldr.w	r9, [r8, #36]	; 0x24
 200305a:	f049 0303 	orr.w	r3, r9, #3
 200305e:	f8c8 3024 	str.w	r3, [r8, #36]	; 0x24
 2003062:	f1fd f8d5 	bl	2200210 <osEnterSleep>
 2003066:	f8d8 3024 	ldr.w	r3, [r8, #36]	; 0x24
 200306a:	f009 0903 	and.w	r9, r9, #3
 200306e:	f023 0303 	bic.w	r3, r3, #3
 2003072:	ea43 0309 	orr.w	r3, r3, r9
 2003076:	f8c8 3024 	str.w	r3, [r8, #36]	; 0x24
 200307a:	4668      	mov	r0, sp
 200307c:	f20b fb88 	bl	220e790 <uapi_time_counter_getus>
 2003080:	9b00      	ldr	r3, [sp, #0]
 2003082:	2d01      	cmp	r5, #1
 2003084:	9302      	str	r3, [sp, #8]
 2003086:	d921      	bls.n	20030cc <uapi_lowpower_handle+0x1ac>
 2003088:	f04f 22e0 	mov.w	r2, #3758153728	; 0xe000e000
 200308c:	2300      	movs	r3, #0
 200308e:	f8d2 1200 	ldr.w	r1, [r2, #512]	; 0x200
 2003092:	f8ca 30b0 	str.w	r3, [sl, #176]	; 0xb0
 2003096:	04c8      	lsls	r0, r1, #19
 2003098:	f8da 30b4 	ldr.w	r3, [sl, #180]	; 0xb4
 200309c:	d42f      	bmi.n	20030fe <uapi_lowpower_handle+0x1de>
 200309e:	f8d2 2200 	ldr.w	r2, [r2, #512]	; 0x200
 20030a2:	04d1      	lsls	r1, r2, #19
 20030a4:	d42b      	bmi.n	20030fe <uapi_lowpower_handle+0x1de>
 20030a6:	bb5b      	cbnz	r3, 2003100 <uapi_lowpower_handle+0x1e0>
 20030a8:	f04f 23e0 	mov.w	r3, #3758153728	; 0xe000e000
 20030ac:	f8d3 3d04 	ldr.w	r3, [r3, #3332]	; 0xd04
 20030b0:	025a      	lsls	r2, r3, #9
 20030b2:	d50b      	bpl.n	20030cc <uapi_lowpower_handle+0x1ac>
 20030b4:	f3c3 3309 	ubfx	r3, r3, #12, #10
 20030b8:	f1a3 0210 	sub.w	r2, r3, #16
 20030bc:	2a10      	cmp	r2, #16
 20030be:	d805      	bhi.n	20030cc <uapi_lowpower_handle+0x1ac>
 20030c0:	3318      	adds	r3, #24
 20030c2:	f834 2013 	ldrh.w	r2, [r4, r3, lsl #1]
 20030c6:	3201      	adds	r2, #1
 20030c8:	f824 2013 	strh.w	r2, [r4, r3, lsl #1]
 20030cc:	f04f 23e0 	mov.w	r3, #3758153728	; 0xe000e000
 20030d0:	683a      	ldr	r2, [r7, #0]
 20030d2:	f8c3 2100 	str.w	r2, [r3, #256]	; 0x100
 20030d6:	9d02      	ldr	r5, [sp, #8]
 20030d8:	9801      	ldr	r0, [sp, #4]
 20030da:	4285      	cmp	r5, r0
 20030dc:	bf9c      	itt	ls
 20030de:	1b43      	subls	r3, r0, r5
 20030e0:	43da      	mvnls	r2, r3
 20030e2:	f8d4 30e0 	ldr.w	r3, [r4, #224]	; 0xe0
 20030e6:	bf88      	it	hi
 20030e8:	1a2a      	subhi	r2, r5, r0
 20030ea:	189b      	adds	r3, r3, r2
 20030ec:	f8c4 30e0 	str.w	r3, [r4, #224]	; 0xe0
 20030f0:	f8d4 30e4 	ldr.w	r3, [r4, #228]	; 0xe4
 20030f4:	f143 0300 	adc.w	r3, r3, #0
 20030f8:	f8c4 30e4 	str.w	r3, [r4, #228]	; 0xe4
 20030fc:	e75c      	b.n	2002fb8 <uapi_lowpower_handle+0x98>
 20030fe:	b1eb      	cbz	r3, 200313c <uapi_lowpower_handle+0x21c>
 2003100:	1c5d      	adds	r5, r3, #1
 2003102:	4927      	ldr	r1, [pc, #156]	; (20031a0 <uapi_lowpower_handle+0x280>)
 2003104:	4a27      	ldr	r2, [pc, #156]	; (20031a4 <uapi_lowpower_handle+0x284>)
 2003106:	6810      	ldr	r0, [r2, #0]
 2003108:	680a      	ldr	r2, [r1, #0]
 200310a:	18d3      	adds	r3, r2, r3
 200310c:	600b      	str	r3, [r1, #0]
 200310e:	684b      	ldr	r3, [r1, #4]
 2003110:	f143 0300 	adc.w	r3, r3, #0
 2003114:	604b      	str	r3, [r1, #4]
 2003116:	b130      	cbz	r0, 2003126 <uapi_lowpower_handle+0x206>
 2003118:	6882      	ldr	r2, [r0, #8]
 200311a:	1c53      	adds	r3, r2, #1
 200311c:	42aa      	cmp	r2, r5
 200311e:	bf94      	ite	ls
 2003120:	1a9b      	subls	r3, r3, r2
 2003122:	1b5b      	subhi	r3, r3, r5
 2003124:	6083      	str	r3, [r0, #8]
 2003126:	4628      	mov	r0, r5
 2003128:	f1fd ff3a 	bl	2200fa0 <osTskSortLinkUpdate>
 200312c:	e7bc      	b.n	20030a8 <uapi_lowpower_handle+0x188>
 200312e:	6923      	ldr	r3, [r4, #16]
 2003130:	4630      	mov	r0, r6
 2003132:	3301      	adds	r3, #1
 2003134:	6123      	str	r3, [r4, #16]
 2003136:	f1fc ffa3 	bl	2200080 <LOS_IntRestore>
 200313a:	e700      	b.n	2002f3e <uapi_lowpower_handle+0x1e>
 200313c:	1e6b      	subs	r3, r5, #1
 200313e:	e7e0      	b.n	2003102 <uapi_lowpower_handle+0x1e2>
 2003140:	4668      	mov	r0, sp
 2003142:	f20b fb25 	bl	220e790 <uapi_time_counter_getus>
 2003146:	9b00      	ldr	r3, [sp, #0]
 2003148:	f8df 8050 	ldr.w	r8, [pc, #80]	; 200319c <uapi_lowpower_handle+0x27c>
 200314c:	9301      	str	r3, [sp, #4]
 200314e:	f8d8 5024 	ldr.w	r5, [r8, #36]	; 0x24
 2003152:	f045 0303 	orr.w	r3, r5, #3
 2003156:	f8c8 3024 	str.w	r3, [r8, #36]	; 0x24
 200315a:	f1fd f859 	bl	2200210 <osEnterSleep>
 200315e:	f8d8 2024 	ldr.w	r2, [r8, #36]	; 0x24
 2003162:	f005 0303 	and.w	r3, r5, #3
 2003166:	f022 0203 	bic.w	r2, r2, #3
 200316a:	4313      	orrs	r3, r2
 200316c:	f8c8 3024 	str.w	r3, [r8, #36]	; 0x24
 2003170:	4668      	mov	r0, sp
 2003172:	f20b fb0d 	bl	220e790 <uapi_time_counter_getus>
 2003176:	9b00      	ldr	r3, [sp, #0]
 2003178:	9302      	str	r3, [sp, #8]
 200317a:	e7a7      	b.n	20030cc <uapi_lowpower_handle+0x1ac>
 200317c:	9801      	ldr	r0, [sp, #4]
 200317e:	9d02      	ldr	r5, [sp, #8]
 2003180:	e71a      	b.n	2002fb8 <uapi_lowpower_handle+0x98>
 2003182:	f201 fed1 	bl	2204f28 <__stack_chk_fail>
 2003186:	bf00      	nop
 2003188:	02000498 	.word	0x02000498
 200318c:	0200c418 	.word	0x0200c418
 2003190:	40032000 	.word	0x40032000
 2003194:	0200c410 	.word	0x0200c410
 2003198:	0200c414 	.word	0x0200c414
 200319c:	4003b000 	.word	0x4003b000
 20031a0:	020011a8 	.word	0x020011a8
 20031a4:	0200115c 	.word	0x0200115c

020031a8 <dfx_get_lowpower_stat>:
 20031a8:	b570      	push	{r4, r5, r6, lr}
 20031aa:	4604      	mov	r4, r0
 20031ac:	4818      	ldr	r0, [pc, #96]	; (2003210 <dfx_get_lowpower_stat+0x68>)
 20031ae:	b0c4      	sub	sp, #272	; 0x110
 20031b0:	f44f 7280 	mov.w	r2, #256	; 0x100
 20031b4:	2100      	movs	r1, #0
 20031b6:	6800      	ldr	r0, [r0, #0]
 20031b8:	9043      	str	r0, [sp, #268]	; 0x10c
 20031ba:	f04f 0000 	mov.w	r0, #0
 20031be:	a803      	add	r0, sp, #12
 20031c0:	461d      	mov	r5, r3
 20031c2:	f204 fb47 	bl	2207854 <memset>
 20031c6:	f44f 7380 	mov.w	r3, #256	; 0x100
 20031ca:	4a12      	ldr	r2, [pc, #72]	; (2003214 <dfx_get_lowpower_stat+0x6c>)
 20031cc:	4619      	mov	r1, r3
 20031ce:	a803      	add	r0, sp, #12
 20031d0:	f204 ff24 	bl	220801c <memcpy_s>
 20031d4:	f89d 3014 	ldrb.w	r3, [sp, #20]
 20031d8:	07db      	lsls	r3, r3, #31
 20031da:	d512      	bpl.n	2003202 <dfx_get_lowpower_stat+0x5a>
 20031dc:	2601      	movs	r6, #1
 20031de:	f44f 7380 	mov.w	r3, #256	; 0x100
 20031e2:	aa03      	add	r2, sp, #12
 20031e4:	4629      	mov	r1, r5
 20031e6:	4620      	mov	r0, r4
 20031e8:	9600      	str	r6, [sp, #0]
 20031ea:	f038 fed5 	bl	203bf98 <uapi_diag_report_packet>
 20031ee:	4b08      	ldr	r3, [pc, #32]	; (2003210 <dfx_get_lowpower_stat+0x68>)
 20031f0:	681a      	ldr	r2, [r3, #0]
 20031f2:	9b43      	ldr	r3, [sp, #268]	; 0x10c
 20031f4:	405a      	eors	r2, r3
 20031f6:	f04f 0300 	mov.w	r3, #0
 20031fa:	d107      	bne.n	200320c <dfx_get_lowpower_stat+0x64>
 20031fc:	2000      	movs	r0, #0
 20031fe:	b044      	add	sp, #272	; 0x110
 2003200:	bd70      	pop	{r4, r5, r6, pc}
 2003202:	f20c fa81 	bl	220f708 <uapi_get_tick64>
 2003206:	9041      	str	r0, [sp, #260]	; 0x104
 2003208:	9142      	str	r1, [sp, #264]	; 0x108
 200320a:	e7e7      	b.n	20031dc <dfx_get_lowpower_stat+0x34>
 200320c:	f201 fe8c 	bl	2204f28 <__stack_chk_fail>
 2003210:	02000498 	.word	0x02000498
 2003214:	0200c418 	.word	0x0200c418

02003218 <ll_station_get_nid_by_rt_policy_cb>:
 2003218:	b5f8      	push	{r3, r4, r5, r6, r7, lr}
 200321a:	4604      	mov	r4, r0
 200321c:	460d      	mov	r5, r1
 200321e:	4616      	mov	r6, r2
 2003220:	f004 f918 	bl	2007454 <rt_is_mesh_route_policy>
 2003224:	b910      	cbnz	r0, 200322c <ll_station_get_nid_by_rt_policy_cb+0x14>
 2003226:	f04f 30ff 	mov.w	r0, #4294967295	; 0xffffffff
 200322a:	bdf8      	pop	{r3, r4, r5, r6, r7, pc}
 200322c:	f003 fb5a 	bl	20068e4 <nm_get_join_net_state>
 2003230:	4607      	mov	r7, r0
 2003232:	2800      	cmp	r0, #0
 2003234:	d1f7      	bne.n	2003226 <ll_station_get_nid_by_rt_policy_cb+0xe>
 2003236:	2c60      	cmp	r4, #96	; 0x60
 2003238:	d1f5      	bne.n	2003226 <ll_station_get_nid_by_rt_policy_cb+0xe>
 200323a:	f004 f905 	bl	2007448 <rt_get_mesh_multi_net_flag>
 200323e:	2801      	cmp	r0, #1
 2003240:	d004      	beq.n	200324c <ll_station_get_nid_by_rt_policy_cb+0x34>
 2003242:	2d01      	cmp	r5, #1
 2003244:	d1ef      	bne.n	2003226 <ll_station_get_nid_by_rt_policy_cb+0xe>
 2003246:	6037      	str	r7, [r6, #0]
 2003248:	4638      	mov	r0, r7
 200324a:	bdf8      	pop	{r3, r4, r5, r6, r7, pc}
 200324c:	4b03      	ldr	r3, [pc, #12]	; (200325c <ll_station_get_nid_by_rt_policy_cb+0x44>)
 200324e:	4638      	mov	r0, r7
 2003250:	6a1b      	ldr	r3, [r3, #32]
 2003252:	f3c3 2317 	ubfx	r3, r3, #8, #24
 2003256:	6033      	str	r3, [r6, #0]
 2003258:	bdf8      	pop	{r3, r4, r5, r6, r7, pc}
 200325a:	bf00      	nop
 200325c:	0200d600 	.word	0x0200d600

02003260 <ll_station_get_field_type>:
 2003260:	4b01      	ldr	r3, [pc, #4]	; (2003268 <ll_station_get_field_type+0x8>)
 2003262:	6ad8      	ldr	r0, [r3, #44]	; 0x2c
 2003264:	4770      	bx	lr
 2003266:	bf00      	nop
 2003268:	0200d600 	.word	0x0200d600

0200326c <ll_station_get_field_type_state>:
 200326c:	4b02      	ldr	r3, [pc, #8]	; (2003278 <ll_station_get_field_type_state+0xc>)
 200326e:	7bd8      	ldrb	r0, [r3, #15]
 2003270:	f3c0 1080 	ubfx	r0, r0, #6, #1
 2003274:	4770      	bx	lr
 2003276:	bf00      	nop
 2003278:	0200d600 	.word	0x0200d600

0200327c <ll_station_get_plc_nid>:
 200327c:	4b02      	ldr	r3, [pc, #8]	; (2003288 <ll_station_get_plc_nid+0xc>)
 200327e:	6818      	ldr	r0, [r3, #0]
 2003280:	f020 407f 	bic.w	r0, r0, #4278190080	; 0xff000000
 2003284:	4770      	bx	lr
 2003286:	bf00      	nop
 2003288:	0200d600 	.word	0x0200d600

0200328c <ll_station_get_tei>:
 200328c:	4b02      	ldr	r3, [pc, #8]	; (2003298 <ll_station_get_tei+0xc>)
 200328e:	8998      	ldrh	r0, [r3, #12]
 2003290:	f3c0 000b 	ubfx	r0, r0, #0, #12
 2003294:	4770      	bx	lr
 2003296:	bf00      	nop
 2003298:	0200d600 	.word	0x0200d600

0200329c <ll_station_get_role>:
 200329c:	4b01      	ldr	r3, [pc, #4]	; (20032a4 <ll_station_get_role+0x8>)
 200329e:	78d8      	ldrb	r0, [r3, #3]
 20032a0:	4770      	bx	lr
 20032a2:	bf00      	nop
 20032a4:	0200d600 	.word	0x0200d600

020032a8 <ll_station_get_level>:
 20032a8:	4b02      	ldr	r3, [pc, #8]	; (20032b4 <ll_station_get_level+0xc>)
 20032aa:	68d8      	ldr	r0, [r3, #12]
 20032ac:	f3c0 3004 	ubfx	r0, r0, #12, #5
 20032b0:	4770      	bx	lr
 20032b2:	bf00      	nop
 20032b4:	0200d600 	.word	0x0200d600

020032b8 <ll_station_get_mac>:
 20032b8:	4800      	ldr	r0, [pc, #0]	; (20032bc <ll_station_get_mac+0x4>)
 20032ba:	4770      	bx	lr
 20032bc:	0200d61a 	.word	0x0200d61a

020032c0 <ll_station_get_cco_mac>:
 20032c0:	4800      	ldr	r0, [pc, #0]	; (20032c4 <ll_station_get_cco_mac+0x4>)
 20032c2:	4770      	bx	lr
 20032c4:	0200d626 	.word	0x0200d626

020032c8 <ll_get_cco_tei>:
 20032c8:	4b01      	ldr	r3, [pc, #4]	; (20032d0 <ll_get_cco_tei+0x8>)
 20032ca:	8c98      	ldrh	r0, [r3, #36]	; 0x24
 20032cc:	4770      	bx	lr
 20032ce:	bf00      	nop
 20032d0:	0200d600 	.word	0x0200d600

020032d4 <ll_station_set_proxy_tei>:
 20032d4:	4b02      	ldr	r3, [pc, #8]	; (20032e0 <ll_station_set_proxy_tei+0xc>)
 20032d6:	89da      	ldrh	r2, [r3, #14]
 20032d8:	f360 024c 	bfi	r2, r0, #1, #12
 20032dc:	81da      	strh	r2, [r3, #14]
 20032de:	4770      	bx	lr
 20032e0:	0200d600 	.word	0x0200d600

020032e4 <ll_station_get_proxy_tei>:
 20032e4:	4b02      	ldr	r3, [pc, #8]	; (20032f0 <ll_station_get_proxy_tei+0xc>)
 20032e6:	89d8      	ldrh	r0, [r3, #14]
 20032e8:	f3c0 004b 	ubfx	r0, r0, #1, #12
 20032ec:	4770      	bx	lr
 20032ee:	bf00      	nop
 20032f0:	0200d600 	.word	0x0200d600

020032f4 <ll_station_get_freq_filter_switch>:
 20032f4:	4b02      	ldr	r3, [pc, #8]	; (2003300 <ll_station_get_freq_filter_switch+0xc>)
 20032f6:	7bd8      	ldrb	r0, [r3, #15]
 20032f8:	f3c0 1040 	ubfx	r0, r0, #5, #1
 20032fc:	4770      	bx	lr
 20032fe:	bf00      	nop
 2003300:	0200d600 	.word	0x0200d600

02003304 <ll_station_is_match_freq>:
 2003304:	4b05      	ldr	r3, [pc, #20]	; (200331c <ll_station_is_match_freq+0x18>)
 2003306:	7bda      	ldrb	r2, [r3, #15]
 2003308:	0692      	lsls	r2, r2, #26
 200330a:	d505      	bpl.n	2003318 <ll_station_is_match_freq+0x14>
 200330c:	791b      	ldrb	r3, [r3, #4]
 200330e:	1a18      	subs	r0, r3, r0
 2003310:	fab0 f080 	clz	r0, r0
 2003314:	0940      	lsrs	r0, r0, #5
 2003316:	4770      	bx	lr
 2003318:	2001      	movs	r0, #1
 200331a:	4770      	bx	lr
 200331c:	0200d600 	.word	0x0200d600

02003320 <ll_station_get_main_ptcl_ver>:
 2003320:	4b01      	ldr	r3, [pc, #4]	; (2003328 <ll_station_get_main_ptcl_ver+0x8>)
 2003322:	8b18      	ldrh	r0, [r3, #24]
 2003324:	4770      	bx	lr
 2003326:	bf00      	nop
 2003328:	0200d600 	.word	0x0200d600

0200332c <ll_station_get_serial_number>:
 200332c:	4b01      	ldr	r3, [pc, #4]	; (2003334 <ll_station_get_serial_number+0x8>)
 200332e:	7958      	ldrb	r0, [r3, #5]
 2003330:	4770      	bx	lr
 2003332:	bf00      	nop
 2003334:	0200d600 	.word	0x0200d600

02003338 <ll_station_get_brocast_mac>:
 2003338:	4800      	ldr	r0, [pc, #0]	; (200333c <ll_station_get_brocast_mac+0x4>)
 200333a:	4770      	bx	lr
 200333c:	0200d606 	.word	0x0200d606

02003340 <ll_get_mac_by_tei>:
 2003340:	b180      	cbz	r0, 2003364 <ll_get_mac_by_tei+0x24>
 2003342:	2901      	cmp	r1, #1
 2003344:	b508      	push	{r3, lr}
 2003346:	d003      	beq.n	2003350 <ll_get_mac_by_tei+0x10>
 2003348:	e8bd 4008 	ldmia.w	sp!, {r3, lr}
 200334c:	f004 ba42 	b.w	20077d4 <rt_get_mac_by_tei>
 2003350:	2306      	movs	r3, #6
 2003352:	4a06      	ldr	r2, [pc, #24]	; (200336c <ll_get_mac_by_tei+0x2c>)
 2003354:	4619      	mov	r1, r3
 2003356:	f204 fe61 	bl	220801c <memcpy_s>
 200335a:	3800      	subs	r0, #0
 200335c:	bf18      	it	ne
 200335e:	2001      	movne	r0, #1
 2003360:	4240      	negs	r0, r0
 2003362:	bd08      	pop	{r3, pc}
 2003364:	f04f 30ff 	mov.w	r0, #4294967295	; 0xffffffff
 2003368:	4770      	bx	lr
 200336a:	bf00      	nop
 200336c:	0200d626 	.word	0x0200d626

02003370 <ll_get_proxy_tei_by_tei>:
 2003370:	b538      	push	{r3, r4, r5, lr}
 2003372:	4605      	mov	r5, r0
 2003374:	4608      	mov	r0, r1
 2003376:	460c      	mov	r4, r1
 2003378:	f000 fb84 	bl	2003a84 <mac_tei_is_valid>
 200337c:	b150      	cbz	r0, 2003394 <ll_get_proxy_tei_by_tei+0x24>
 200337e:	4620      	mov	r0, r4
 2003380:	f004 f958 	bl	2007634 <rt_get_path_info_node_by_tei>
 2003384:	4603      	mov	r3, r0
 2003386:	b128      	cbz	r0, 2003394 <ll_get_proxy_tei_by_tei+0x24>
 2003388:	88db      	ldrh	r3, [r3, #6]
 200338a:	2000      	movs	r0, #0
 200338c:	f3c3 030b 	ubfx	r3, r3, #0, #12
 2003390:	802b      	strh	r3, [r5, #0]
 2003392:	bd38      	pop	{r3, r4, r5, pc}
 2003394:	f04f 30ff 	mov.w	r0, #4294967295	; 0xffffffff
 2003398:	bd38      	pop	{r3, r4, r5, pc}
 200339a:	bf00      	nop

0200339c <ll_get_role_by_tei>:
 200339c:	b538      	push	{r3, r4, r5, lr}
 200339e:	4605      	mov	r5, r0
 20033a0:	4608      	mov	r0, r1
 20033a2:	460c      	mov	r4, r1
 20033a4:	f000 fb6e 	bl	2003a84 <mac_tei_is_valid>
 20033a8:	b150      	cbz	r0, 20033c0 <ll_get_role_by_tei+0x24>
 20033aa:	4620      	mov	r0, r4
 20033ac:	f004 f942 	bl	2007634 <rt_get_path_info_node_by_tei>
 20033b0:	4603      	mov	r3, r0
 20033b2:	b128      	cbz	r0, 20033c0 <ll_get_role_by_tei+0x24>
 20033b4:	79db      	ldrb	r3, [r3, #7]
 20033b6:	2000      	movs	r0, #0
 20033b8:	f3c3 1303 	ubfx	r3, r3, #4, #4
 20033bc:	702b      	strb	r3, [r5, #0]
 20033be:	bd38      	pop	{r3, r4, r5, pc}
 20033c0:	f04f 30ff 	mov.w	r0, #4294967295	; 0xffffffff
 20033c4:	bd38      	pop	{r3, r4, r5, pc}
 20033c6:	bf00      	nop

020033c8 <ll_get_level_by_tei>:
 20033c8:	b538      	push	{r3, r4, r5, lr}
 20033ca:	4605      	mov	r5, r0
 20033cc:	4608      	mov	r0, r1
 20033ce:	460c      	mov	r4, r1
 20033d0:	f000 fb58 	bl	2003a84 <mac_tei_is_valid>
 20033d4:	b150      	cbz	r0, 20033ec <ll_get_level_by_tei+0x24>
 20033d6:	4620      	mov	r0, r4
 20033d8:	f004 f92c 	bl	2007634 <rt_get_path_info_node_by_tei>
 20033dc:	4603      	mov	r3, r0
 20033de:	b128      	cbz	r0, 20033ec <ll_get_level_by_tei+0x24>
 20033e0:	7adb      	ldrb	r3, [r3, #11]
 20033e2:	2000      	movs	r0, #0
 20033e4:	f3c3 0303 	ubfx	r3, r3, #0, #4
 20033e8:	702b      	strb	r3, [r5, #0]
 20033ea:	bd38      	pop	{r3, r4, r5, pc}
 20033ec:	f04f 30ff 	mov.w	r0, #4294967295	; 0xffffffff
 20033f0:	bd38      	pop	{r3, r4, r5, pc}
 20033f2:	bf00      	nop

020033f4 <ll_station_is_tf_enable>:
 20033f4:	4b03      	ldr	r3, [pc, #12]	; (2003404 <ll_station_is_tf_enable+0x10>)
 20033f6:	6cd8      	ldr	r0, [r3, #76]	; 0x4c
 20033f8:	f1a0 0001 	sub.w	r0, r0, #1
 20033fc:	fab0 f080 	clz	r0, r0
 2003400:	0940      	lsrs	r0, r0, #5
 2003402:	4770      	bx	lr
 2003404:	0200d600 	.word	0x0200d600

02003408 <ll_station_get_power_failure_state>:
 2003408:	4b01      	ldr	r3, [pc, #4]	; (2003410 <ll_station_get_power_failure_state+0x8>)
 200340a:	f893 0050 	ldrb.w	r0, [r3, #80]	; 0x50
 200340e:	4770      	bx	lr
 2003410:	0200d600 	.word	0x0200d600

02003414 <ll_station_get_stas_commu_state>:
 2003414:	4b01      	ldr	r3, [pc, #4]	; (200341c <ll_station_get_stas_commu_state+0x8>)
 2003416:	7d58      	ldrb	r0, [r3, #21]
 2003418:	4770      	bx	lr
 200341a:	bf00      	nop
 200341c:	0200d600 	.word	0x0200d600

02003420 <ll_station_get_phy_test_mode>:
 2003420:	4b01      	ldr	r3, [pc, #4]	; (2003428 <ll_station_get_phy_test_mode+0x8>)
 2003422:	7dd8      	ldrb	r0, [r3, #23]
 2003424:	4770      	bx	lr
 2003426:	bf00      	nop
 2003428:	0200d600 	.word	0x0200d600

0200342c <ll_staion_get_mesh_lock_nid>:
 200342c:	4b01      	ldr	r3, [pc, #4]	; (2003434 <ll_staion_get_mesh_lock_nid+0x8>)
 200342e:	6a18      	ldr	r0, [r3, #32]
 2003430:	0a00      	lsrs	r0, r0, #8
 2003432:	4770      	bx	lr
 2003434:	0200d600 	.word	0x0200d600

02003438 <ll_station_mesh_get_nid_register>:
 2003438:	4b01      	ldr	r3, [pc, #4]	; (2003440 <ll_station_mesh_get_nid_register+0x8>)
 200343a:	4a02      	ldr	r2, [pc, #8]	; (2003444 <ll_station_mesh_get_nid_register+0xc>)
 200343c:	649a      	str	r2, [r3, #72]	; 0x48
 200343e:	4770      	bx	lr
 2003440:	0200d600 	.word	0x0200d600
 2003444:	02003219 	.word	0x02003219

02003448 <ll_staion_get_nid_by_rt_policy>:
 2003448:	b510      	push	{r4, lr}
 200344a:	4a0e      	ldr	r2, [pc, #56]	; (2003484 <ll_staion_get_nid_by_rt_policy+0x3c>)
 200344c:	4b0e      	ldr	r3, [pc, #56]	; (2003488 <ll_staion_get_nid_by_rt_policy+0x40>)
 200344e:	b082      	sub	sp, #8
 2003450:	681b      	ldr	r3, [r3, #0]
 2003452:	9301      	str	r3, [sp, #4]
 2003454:	f04f 0300 	mov.w	r3, #0
 2003458:	6813      	ldr	r3, [r2, #0]
 200345a:	6c94      	ldr	r4, [r2, #72]	; 0x48
 200345c:	f3c3 0317 	ubfx	r3, r3, #0, #24
 2003460:	9300      	str	r3, [sp, #0]
 2003462:	b114      	cbz	r4, 200346a <ll_staion_get_nid_by_rt_policy+0x22>
 2003464:	466a      	mov	r2, sp
 2003466:	47a0      	blx	r4
 2003468:	9b00      	ldr	r3, [sp, #0]
 200346a:	4a07      	ldr	r2, [pc, #28]	; (2003488 <ll_staion_get_nid_by_rt_policy+0x40>)
 200346c:	6811      	ldr	r1, [r2, #0]
 200346e:	9a01      	ldr	r2, [sp, #4]
 2003470:	4051      	eors	r1, r2
 2003472:	f04f 0200 	mov.w	r2, #0
 2003476:	d102      	bne.n	200347e <ll_staion_get_nid_by_rt_policy+0x36>
 2003478:	4618      	mov	r0, r3
 200347a:	b002      	add	sp, #8
 200347c:	bd10      	pop	{r4, pc}
 200347e:	f201 fd53 	bl	2204f28 <__stack_chk_fail>
 2003482:	bf00      	nop
 2003484:	0200d600 	.word	0x0200d600
 2003488:	02000498 	.word	0x02000498

0200348c <mac_buffer_get_data_block>:
 200348c:	e92d 4ff0 	stmdb	sp!, {r4, r5, r6, r7, r8, r9, sl, fp, lr}
 2003490:	f04f 0e00 	mov.w	lr, #0
 2003494:	f882 e000 	strb.w	lr, [r2]
 2003498:	8b44      	ldrh	r4, [r0, #26]
 200349a:	b34c      	cbz	r4, 20034f0 <mac_buffer_get_data_block+0x64>
 200349c:	6887      	ldr	r7, [r0, #8]
 200349e:	4b1e      	ldr	r3, [pc, #120]	; (2003518 <mac_buffer_get_data_block+0x8c>)
 20034a0:	4692      	mov	sl, r2
 20034a2:	4681      	mov	r9, r0
 20034a4:	460d      	mov	r5, r1
 20034a6:	f04f 0801 	mov.w	r8, #1
 20034aa:	46bc      	mov	ip, r7
 20034ac:	8b9e      	ldrh	r6, [r3, #28]
 20034ae:	e017      	b.n	20034e0 <mac_buffer_get_data_block+0x54>
 20034b0:	fbb6 fbf2 	udiv	fp, r6, r2
 20034b4:	f10b 33ff 	add.w	r3, fp, #4294967295	; 0xffffffff
 20034b8:	fa08 f303 	lsl.w	r3, r8, r3
 20034bc:	b2d9      	uxtb	r1, r3
 20034be:	f1bb 0f00 	cmp.w	fp, #0
 20034c2:	d007      	beq.n	20034d4 <mac_buffer_get_data_block+0x48>
 20034c4:	f817 b03e 	ldrb.w	fp, [r7, lr, lsl #3]
 20034c8:	ea03 030b 	and.w	r3, r3, fp
 20034cc:	4299      	cmp	r1, r3
 20034ce:	d001      	beq.n	20034d4 <mac_buffer_get_data_block+0x48>
 20034d0:	4295      	cmp	r5, r2
 20034d2:	d90b      	bls.n	20034ec <mac_buffer_get_data_block+0x60>
 20034d4:	f10e 0e01 	add.w	lr, lr, #1
 20034d8:	45a6      	cmp	lr, r4
 20034da:	f10c 0c08 	add.w	ip, ip, #8
 20034de:	d007      	beq.n	20034f0 <mac_buffer_get_data_block+0x64>
 20034e0:	f8bc 2002 	ldrh.w	r2, [ip, #2]
 20034e4:	4660      	mov	r0, ip
 20034e6:	2a00      	cmp	r2, #0
 20034e8:	d1e2      	bne.n	20034b0 <mac_buffer_get_data_block+0x24>
 20034ea:	b925      	cbnz	r5, 20034f6 <mac_buffer_get_data_block+0x6a>
 20034ec:	e8bd 8ff0 	ldmia.w	sp!, {r4, r5, r6, r7, r8, r9, sl, fp, pc}
 20034f0:	2000      	movs	r0, #0
 20034f2:	e8bd 8ff0 	ldmia.w	sp!, {r4, r5, r6, r7, r8, r9, sl, fp, pc}
 20034f6:	f8b9 3010 	ldrh.w	r3, [r9, #16]
 20034fa:	2201      	movs	r2, #1
 20034fc:	429d      	cmp	r5, r3
 20034fe:	bf38      	it	cc
 2003500:	461d      	movcc	r5, r3
 2003502:	8045      	strh	r5, [r0, #2]
 2003504:	f8b9 3012 	ldrh.w	r3, [r9, #18]
 2003508:	4413      	add	r3, r2
 200350a:	f8a9 3012 	strh.w	r3, [r9, #18]
 200350e:	f88a 2000 	strb.w	r2, [sl]
 2003512:	e8bd 8ff0 	ldmia.w	sp!, {r4, r5, r6, r7, r8, r9, sl, fp, pc}
 2003516:	bf00      	nop
 2003518:	0200d324 	.word	0x0200d324

0200351c <mac_buffer_data_length>:
 200351c:	2848      	cmp	r0, #72	; 0x48
 200351e:	d90c      	bls.n	200353a <mac_buffer_data_length+0x1e>
 2003520:	2888      	cmp	r0, #136	; 0x88
 2003522:	d908      	bls.n	2003536 <mac_buffer_data_length+0x1a>
 2003524:	f64f 73ff 	movw	r3, #65535	; 0xffff
 2003528:	f5b0 7f02 	cmp.w	r0, #520	; 0x208
 200352c:	bf8c      	ite	hi
 200352e:	4618      	movhi	r0, r3
 2003530:	f44f 7002 	movls.w	r0, #520	; 0x208
 2003534:	4770      	bx	lr
 2003536:	2088      	movs	r0, #136	; 0x88
 2003538:	4770      	bx	lr
 200353a:	2048      	movs	r0, #72	; 0x48
 200353c:	4770      	bx	lr
 200353e:	bf00      	nop

02003540 <mac_buffer_get_block_by_length>:
 2003540:	b570      	push	{r4, r5, r6, lr}
 2003542:	4605      	mov	r5, r0
 2003544:	461e      	mov	r6, r3
 2003546:	f7ff ffa1 	bl	200348c <mac_buffer_get_data_block>
 200354a:	4604      	mov	r4, r0
 200354c:	b368      	cbz	r0, 20035aa <mac_buffer_get_block_by_length+0x6a>
 200354e:	8840      	ldrh	r0, [r0, #2]
 2003550:	8ba9      	ldrh	r1, [r5, #28]
 2003552:	fbb1 f1f0 	udiv	r1, r1, r0
 2003556:	b171      	cbz	r1, 2003576 <mac_buffer_get_block_by_length+0x36>
 2003558:	f894 e000 	ldrb.w	lr, [r4]
 200355c:	f01e 0301 	ands.w	r3, lr, #1
 2003560:	d02c      	beq.n	20035bc <mac_buffer_get_block_by_length+0x7c>
 2003562:	2200      	movs	r2, #0
 2003564:	e002      	b.n	200356c <mac_buffer_get_block_by_length+0x2c>
 2003566:	f01c 0f01 	tst.w	ip, #1
 200356a:	d00f      	beq.n	200358c <mac_buffer_get_block_by_length+0x4c>
 200356c:	3201      	adds	r2, #1
 200356e:	4291      	cmp	r1, r2
 2003570:	fa4e fc02 	asr.w	ip, lr, r2
 2003574:	d1f7      	bne.n	2003566 <mac_buffer_get_block_by_length+0x26>
 2003576:	2400      	movs	r4, #0
 2003578:	4631      	mov	r1, r6
 200357a:	4628      	mov	r0, r5
 200357c:	f20c fa96 	bl	220faac <uapi_list_tail_insert>
 2003580:	4a10      	ldr	r2, [pc, #64]	; (20035c4 <mac_buffer_get_block_by_length+0x84>)
 2003582:	6853      	ldr	r3, [r2, #4]
 2003584:	3301      	adds	r3, #1
 2003586:	6053      	str	r3, [r2, #4]
 2003588:	4620      	mov	r0, r4
 200358a:	bd70      	pop	{r4, r5, r6, pc}
 200358c:	2301      	movs	r3, #1
 200358e:	fb02 f100 	mul.w	r1, r2, r0
 2003592:	fa03 f202 	lsl.w	r2, r3, r2
 2003596:	b2d2      	uxtb	r2, r2
 2003598:	ea42 0e0e 	orr.w	lr, r2, lr
 200359c:	f884 e000 	strb.w	lr, [r4]
 20035a0:	6864      	ldr	r4, [r4, #4]
 20035a2:	1864      	adds	r4, r4, r1
 20035a4:	d0e7      	beq.n	2003576 <mac_buffer_get_block_by_length+0x36>
 20035a6:	4620      	mov	r0, r4
 20035a8:	bd70      	pop	{r4, r5, r6, pc}
 20035aa:	4631      	mov	r1, r6
 20035ac:	4628      	mov	r0, r5
 20035ae:	f20c fa7d 	bl	220faac <uapi_list_tail_insert>
 20035b2:	4a04      	ldr	r2, [pc, #16]	; (20035c4 <mac_buffer_get_block_by_length+0x84>)
 20035b4:	6853      	ldr	r3, [r2, #4]
 20035b6:	3301      	adds	r3, #1
 20035b8:	6053      	str	r3, [r2, #4]
 20035ba:	e7e5      	b.n	2003588 <mac_buffer_get_block_by_length+0x48>
 20035bc:	4619      	mov	r1, r3
 20035be:	2201      	movs	r2, #1
 20035c0:	e7ea      	b.n	2003598 <mac_buffer_get_block_by_length+0x58>
 20035c2:	bf00      	nop
 20035c4:	0200d30c 	.word	0x0200d30c

020035c8 <mac_buffer_dequeue>:
 20035c8:	e92d 43f0 	stmdb	sp!, {r4, r5, r6, r7, r8, r9, lr}
 20035cc:	2400      	movs	r4, #0
 20035ce:	4b39      	ldr	r3, [pc, #228]	; (20036b4 <mac_buffer_dequeue+0xec>)
 20035d0:	4e39      	ldr	r6, [pc, #228]	; (20036b8 <mac_buffer_dequeue+0xf0>)
 20035d2:	b083      	sub	sp, #12
 20035d4:	681b      	ldr	r3, [r3, #0]
 20035d6:	9301      	str	r3, [sp, #4]
 20035d8:	f04f 0300 	mov.w	r3, #0
 20035dc:	8bb3      	ldrh	r3, [r6, #28]
 20035de:	f88d 4003 	strb.w	r4, [sp, #3]
 20035e2:	4283      	cmp	r3, r0
 20035e4:	d324      	bcc.n	2003630 <mac_buffer_dequeue+0x68>
 20035e6:	700c      	strb	r4, [r1, #0]
 20035e8:	460f      	mov	r7, r1
 20035ea:	4605      	mov	r5, r0
 20035ec:	f20b fe1e 	bl	220f22c <uapi_int_lock>
 20035f0:	4680      	mov	r8, r0
 20035f2:	4630      	mov	r0, r6
 20035f4:	f20c fa68 	bl	220fac8 <uapi_is_list_empty>
 20035f8:	4681      	mov	r9, r0
 20035fa:	bb20      	cbnz	r0, 2003646 <mac_buffer_dequeue+0x7e>
 20035fc:	6874      	ldr	r4, [r6, #4]
 20035fe:	4620      	mov	r0, r4
 2003600:	f20c fa58 	bl	220fab4 <uapi_list_delete>
 2003604:	b1fc      	cbz	r4, 2003646 <mac_buffer_dequeue+0x7e>
 2003606:	2d00      	cmp	r5, #0
 2003608:	d03b      	beq.n	2003682 <mac_buffer_dequeue+0xba>
 200360a:	2d48      	cmp	r5, #72	; 0x48
 200360c:	d947      	bls.n	200369e <mac_buffer_dequeue+0xd6>
 200360e:	2d88      	cmp	r5, #136	; 0x88
 2003610:	d947      	bls.n	20036a2 <mac_buffer_dequeue+0xda>
 2003612:	f5b5 7f02 	cmp.w	r5, #520	; 0x208
 2003616:	d91f      	bls.n	2003658 <mac_buffer_dequeue+0x90>
 2003618:	4621      	mov	r1, r4
 200361a:	4630      	mov	r0, r6
 200361c:	f20c fa46 	bl	220faac <uapi_list_tail_insert>
 2003620:	4a26      	ldr	r2, [pc, #152]	; (20036bc <mac_buffer_dequeue+0xf4>)
 2003622:	4640      	mov	r0, r8
 2003624:	6853      	ldr	r3, [r2, #4]
 2003626:	464c      	mov	r4, r9
 2003628:	3301      	adds	r3, #1
 200362a:	6053      	str	r3, [r2, #4]
 200362c:	f20b fe00 	bl	220f230 <uapi_int_restore>
 2003630:	4b20      	ldr	r3, [pc, #128]	; (20036b4 <mac_buffer_dequeue+0xec>)
 2003632:	681a      	ldr	r2, [r3, #0]
 2003634:	9b01      	ldr	r3, [sp, #4]
 2003636:	405a      	eors	r2, r3
 2003638:	f04f 0300 	mov.w	r3, #0
 200363c:	d138      	bne.n	20036b0 <mac_buffer_dequeue+0xe8>
 200363e:	4620      	mov	r0, r4
 2003640:	b003      	add	sp, #12
 2003642:	e8bd 83f0 	ldmia.w	sp!, {r4, r5, r6, r7, r8, r9, pc}
 2003646:	4640      	mov	r0, r8
 2003648:	f20b fdf2 	bl	220f230 <uapi_int_restore>
 200364c:	4a1b      	ldr	r2, [pc, #108]	; (20036bc <mac_buffer_dequeue+0xf4>)
 200364e:	2400      	movs	r4, #0
 2003650:	6853      	ldr	r3, [r2, #4]
 2003652:	3301      	adds	r3, #1
 2003654:	6053      	str	r3, [r2, #4]
 2003656:	e7eb      	b.n	2003630 <mac_buffer_dequeue+0x68>
 2003658:	f44f 7102 	mov.w	r1, #520	; 0x208
 200365c:	4623      	mov	r3, r4
 200365e:	4816      	ldr	r0, [pc, #88]	; (20036b8 <mac_buffer_dequeue+0xf0>)
 2003660:	f10d 0203 	add.w	r2, sp, #3
 2003664:	f7ff ff6c 	bl	2003540 <mac_buffer_get_block_by_length>
 2003668:	4605      	mov	r5, r0
 200366a:	62e0      	str	r0, [r4, #44]	; 0x2c
 200366c:	b1d8      	cbz	r0, 20036a6 <mac_buffer_dequeue+0xde>
 200366e:	8b73      	ldrh	r3, [r6, #26]
 2003670:	8a72      	ldrh	r2, [r6, #18]
 2003672:	1a9b      	subs	r3, r3, r2
 2003674:	2b04      	cmp	r3, #4
 2003676:	dc04      	bgt.n	2003682 <mac_buffer_dequeue+0xba>
 2003678:	f89d 3003 	ldrb.w	r3, [sp, #3]
 200367c:	2b01      	cmp	r3, #1
 200367e:	bf08      	it	eq
 2003680:	703b      	strbeq	r3, [r7, #0]
 2003682:	2301      	movs	r3, #1
 2003684:	4640      	mov	r0, r8
 2003686:	f884 3033 	strb.w	r3, [r4, #51]	; 0x33
 200368a:	f20b fdd1 	bl	220f230 <uapi_int_restore>
 200368e:	4b0b      	ldr	r3, [pc, #44]	; (20036bc <mac_buffer_dequeue+0xf4>)
 2003690:	6899      	ldr	r1, [r3, #8]
 2003692:	681a      	ldr	r2, [r3, #0]
 2003694:	3101      	adds	r1, #1
 2003696:	3a01      	subs	r2, #1
 2003698:	6099      	str	r1, [r3, #8]
 200369a:	601a      	str	r2, [r3, #0]
 200369c:	e7c8      	b.n	2003630 <mac_buffer_dequeue+0x68>
 200369e:	2148      	movs	r1, #72	; 0x48
 20036a0:	e7dc      	b.n	200365c <mac_buffer_dequeue+0x94>
 20036a2:	2188      	movs	r1, #136	; 0x88
 20036a4:	e7da      	b.n	200365c <mac_buffer_dequeue+0x94>
 20036a6:	4640      	mov	r0, r8
 20036a8:	f20b fdc2 	bl	220f230 <uapi_int_restore>
 20036ac:	462c      	mov	r4, r5
 20036ae:	e7bf      	b.n	2003630 <mac_buffer_dequeue+0x68>
 20036b0:	f201 fc3a 	bl	2204f28 <__stack_chk_fail>
 20036b4:	02000498 	.word	0x02000498
 20036b8:	0200d324 	.word	0x0200d324
 20036bc:	0200d30c 	.word	0x0200d30c

020036c0 <mac_buffer_free_data_block>:
 20036c0:	b5f8      	push	{r3, r4, r5, r6, r7, lr}
 20036c2:	68c4      	ldr	r4, [r0, #12]
 20036c4:	6aca      	ldr	r2, [r1, #44]	; 0x2c
 20036c6:	4605      	mov	r5, r0
 20036c8:	8b80      	ldrh	r0, [r0, #28]
 20036ca:	1b14      	subs	r4, r2, r4
 20036cc:	fb94 f4f0 	sdiv	r4, r4, r0
 20036d0:	8b6b      	ldrh	r3, [r5, #26]
 20036d2:	42a3      	cmp	r3, r4
 20036d4:	d926      	bls.n	2003724 <mac_buffer_free_data_block+0x64>
 20036d6:	68ae      	ldr	r6, [r5, #8]
 20036d8:	eb06 07c4 	add.w	r7, r6, r4, lsl #3
 20036dc:	887b      	ldrh	r3, [r7, #2]
 20036de:	b333      	cbz	r3, 200372e <mac_buffer_free_data_block+0x6e>
 20036e0:	fbb0 fef3 	udiv	lr, r0, r3
 20036e4:	6878      	ldr	r0, [r7, #4]
 20036e6:	1a12      	subs	r2, r2, r0
 20036e8:	fb92 f2f3 	sdiv	r2, r2, r3
 20036ec:	fa5f fc82 	uxtb.w	ip, r2
 20036f0:	45f4      	cmp	ip, lr
 20036f2:	4662      	mov	r2, ip
 20036f4:	d216      	bcs.n	2003724 <mac_buffer_free_data_block+0x64>
 20036f6:	2001      	movs	r0, #1
 20036f8:	4090      	lsls	r0, r2
 20036fa:	f816 2034 	ldrb.w	r2, [r6, r4, lsl #3]
 20036fe:	ea22 0200 	bic.w	r2, r2, r0
 2003702:	f806 2034 	strb.w	r2, [r6, r4, lsl #3]
 2003706:	6ac8      	ldr	r0, [r1, #44]	; 0x2c
 2003708:	2200      	movs	r2, #0
 200370a:	4619      	mov	r1, r3
 200370c:	f204 fcf0 	bl	22080f0 <memset_s>
 2003710:	b940      	cbnz	r0, 2003724 <mac_buffer_free_data_block+0x64>
 2003712:	f816 0034 	ldrb.w	r0, [r6, r4, lsl #3]
 2003716:	b940      	cbnz	r0, 200372a <mac_buffer_free_data_block+0x6a>
 2003718:	8078      	strh	r0, [r7, #2]
 200371a:	8a6b      	ldrh	r3, [r5, #18]
 200371c:	b12b      	cbz	r3, 200372a <mac_buffer_free_data_block+0x6a>
 200371e:	3b01      	subs	r3, #1
 2003720:	826b      	strh	r3, [r5, #18]
 2003722:	bdf8      	pop	{r3, r4, r5, r6, r7, pc}
 2003724:	f04f 30ff 	mov.w	r0, #4294967295	; 0xffffffff
 2003728:	bdf8      	pop	{r3, r4, r5, r6, r7, pc}
 200372a:	2000      	movs	r0, #0
 200372c:	bdf8      	pop	{r3, r4, r5, r6, r7, pc}
 200372e:	f806 3034 	strb.w	r3, [r6, r4, lsl #3]
 2003732:	f04f 30ff 	mov.w	r0, #4294967295	; 0xffffffff
 2003736:	bdf8      	pop	{r3, r4, r5, r6, r7, pc}

02003738 <mac_buffer_enqueue>:
 2003738:	b5f8      	push	{r3, r4, r5, r6, r7, lr}
 200373a:	b3a0      	cbz	r0, 20037a6 <mac_buffer_enqueue+0x6e>
 200373c:	4e1f      	ldr	r6, [pc, #124]	; (20037bc <mac_buffer_enqueue+0x84>)
 200373e:	4604      	mov	r4, r0
 2003740:	8b33      	ldrh	r3, [r6, #24]
 2003742:	68f2      	ldr	r2, [r6, #12]
 2003744:	ebc3 03c3 	rsb	r3, r3, r3, lsl #3
 2003748:	1a12      	subs	r2, r2, r0
 200374a:	ebb2 0fc3 	cmp.w	r2, r3, lsl #3
 200374e:	d82a      	bhi.n	20037a6 <mac_buffer_enqueue+0x6e>
 2003750:	f890 3033 	ldrb.w	r3, [r0, #51]	; 0x33
 2003754:	b353      	cbz	r3, 20037ac <mac_buffer_enqueue+0x74>
 2003756:	f20b fd69 	bl	220f22c <uapi_int_lock>
 200375a:	6ae5      	ldr	r5, [r4, #44]	; 0x2c
 200375c:	4607      	mov	r7, r0
 200375e:	b125      	cbz	r5, 200376a <mac_buffer_enqueue+0x32>
 2003760:	4621      	mov	r1, r4
 2003762:	4630      	mov	r0, r6
 2003764:	f7ff ffac 	bl	20036c0 <mac_buffer_free_data_block>
 2003768:	4605      	mov	r5, r0
 200376a:	2308      	movs	r3, #8
 200376c:	2200      	movs	r2, #0
 200376e:	4619      	mov	r1, r3
 2003770:	18e0      	adds	r0, r4, r3
 2003772:	4616      	mov	r6, r2
 2003774:	f204 fcbc 	bl	22080f0 <memset_s>
 2003778:	231c      	movs	r3, #28
 200377a:	4632      	mov	r2, r6
 200377c:	4619      	mov	r1, r3
 200377e:	f104 0010 	add.w	r0, r4, #16
 2003782:	f204 fcb5 	bl	22080f0 <memset_s>
 2003786:	4621      	mov	r1, r4
 2003788:	480c      	ldr	r0, [pc, #48]	; (20037bc <mac_buffer_enqueue+0x84>)
 200378a:	62e6      	str	r6, [r4, #44]	; 0x2c
 200378c:	f20c f98e 	bl	220faac <uapi_list_tail_insert>
 2003790:	4a0b      	ldr	r2, [pc, #44]	; (20037c0 <mac_buffer_enqueue+0x88>)
 2003792:	4638      	mov	r0, r7
 2003794:	6813      	ldr	r3, [r2, #0]
 2003796:	f884 6033 	strb.w	r6, [r4, #51]	; 0x33
 200379a:	3301      	adds	r3, #1
 200379c:	6013      	str	r3, [r2, #0]
 200379e:	f20b fd47 	bl	220f230 <uapi_int_restore>
 20037a2:	4628      	mov	r0, r5
 20037a4:	bdf8      	pop	{r3, r4, r5, r6, r7, pc}
 20037a6:	2501      	movs	r5, #1
 20037a8:	4628      	mov	r0, r5
 20037aa:	bdf8      	pop	{r3, r4, r5, r6, r7, pc}
 20037ac:	2502      	movs	r5, #2
 20037ae:	4a04      	ldr	r2, [pc, #16]	; (20037c0 <mac_buffer_enqueue+0x88>)
 20037b0:	4628      	mov	r0, r5
 20037b2:	6953      	ldr	r3, [r2, #20]
 20037b4:	3301      	adds	r3, #1
 20037b6:	6153      	str	r3, [r2, #20]
 20037b8:	bdf8      	pop	{r3, r4, r5, r6, r7, pc}
 20037ba:	bf00      	nop
 20037bc:	0200d324 	.word	0x0200d324
 20037c0:	0200d30c 	.word	0x0200d30c

020037c4 <mac_buffer_copy>:
 20037c4:	b320      	cbz	r0, 2003810 <mac_buffer_copy+0x4c>
 20037c6:	b570      	push	{r4, r5, r6, lr}
 20037c8:	460d      	mov	r5, r1
 20037ca:	b141      	cbz	r1, 20037de <mac_buffer_copy+0x1a>
 20037cc:	2308      	movs	r3, #8
 20037ce:	4604      	mov	r4, r0
 20037d0:	4616      	mov	r6, r2
 20037d2:	4418      	add	r0, r3
 20037d4:	18ca      	adds	r2, r1, r3
 20037d6:	4619      	mov	r1, r3
 20037d8:	f204 fc20 	bl	220801c <memcpy_s>
 20037dc:	b100      	cbz	r0, 20037e0 <mac_buffer_copy+0x1c>
 20037de:	bd70      	pop	{r4, r5, r6, pc}
 20037e0:	231c      	movs	r3, #28
 20037e2:	f105 0210 	add.w	r2, r5, #16
 20037e6:	4619      	mov	r1, r3
 20037e8:	f104 0010 	add.w	r0, r4, #16
 20037ec:	f204 fc16 	bl	220801c <memcpy_s>
 20037f0:	2800      	cmp	r0, #0
 20037f2:	d1f4      	bne.n	20037de <mac_buffer_copy+0x1a>
 20037f4:	6aea      	ldr	r2, [r5, #44]	; 0x2c
 20037f6:	2a00      	cmp	r2, #0
 20037f8:	d0f1      	beq.n	20037de <mac_buffer_copy+0x1a>
 20037fa:	6ae0      	ldr	r0, [r4, #44]	; 0x2c
 20037fc:	2800      	cmp	r0, #0
 20037fe:	d0ee      	beq.n	20037de <mac_buffer_copy+0x1a>
 2003800:	2e00      	cmp	r6, #0
 2003802:	d0ec      	beq.n	20037de <mac_buffer_copy+0x1a>
 2003804:	4633      	mov	r3, r6
 2003806:	4631      	mov	r1, r6
 2003808:	e8bd 4070 	ldmia.w	sp!, {r4, r5, r6, lr}
 200380c:	f204 bc06 	b.w	220801c <memcpy_s>
 2003810:	4770      	bx	lr
 2003812:	bf00      	nop

02003814 <mac_buff_set_local_broadcast_max_send_time>:
 2003814:	b118      	cbz	r0, 200381e <mac_buff_set_local_broadcast_max_send_time+0xa>
 2003816:	7cc3      	ldrb	r3, [r0, #19]
 2003818:	f361 1307 	bfi	r3, r1, #4, #4
 200381c:	74c3      	strb	r3, [r0, #19]
 200381e:	4770      	bx	lr

02003820 <mac_opti_params_init>:
 2003820:	2314      	movs	r3, #20
 2003822:	4602      	mov	r2, r0
 2003824:	4619      	mov	r1, r3
 2003826:	4801      	ldr	r0, [pc, #4]	; (200382c <mac_opti_params_init+0xc>)
 2003828:	f204 bbf8 	b.w	220801c <memcpy_s>
 200382c:	0200d348 	.word	0x0200d348

02003830 <mac_is_lock_topo_enable>:
 2003830:	4b01      	ldr	r3, [pc, #4]	; (2003838 <mac_is_lock_topo_enable+0x8>)
 2003832:	7c18      	ldrb	r0, [r3, #16]
 2003834:	4770      	bx	lr
 2003836:	bf00      	nop
 2003838:	0200d344 	.word	0x0200d344

0200383c <mac_opti_init>:
 200383c:	2300      	movs	r3, #0
 200383e:	b510      	push	{r4, lr}
 2003840:	4c07      	ldr	r4, [pc, #28]	; (2003860 <mac_opti_init+0x24>)
 2003842:	7a62      	ldrb	r2, [r4, #9]
 2003844:	8023      	strh	r3, [r4, #0]
 2003846:	2a0a      	cmp	r2, #10
 2003848:	70a3      	strb	r3, [r4, #2]
 200384a:	d005      	beq.n	2003858 <mac_opti_init+0x1c>
 200384c:	f003 fe02 	bl	2007454 <rt_is_mesh_route_policy>
 2003850:	b108      	cbz	r0, 2003856 <mac_opti_init+0x1a>
 2003852:	2301      	movs	r3, #1
 2003854:	7023      	strb	r3, [r4, #0]
 2003856:	bd10      	pop	{r4, pc}
 2003858:	2302      	movs	r3, #2
 200385a:	7023      	strb	r3, [r4, #0]
 200385c:	bd10      	pop	{r4, pc}
 200385e:	bf00      	nop
 2003860:	0200d344 	.word	0x0200d344

02003864 <mac_opti_reinit>:
 2003864:	2300      	movs	r3, #0
 2003866:	b510      	push	{r4, lr}
 2003868:	4c0a      	ldr	r4, [pc, #40]	; (2003894 <mac_opti_reinit+0x30>)
 200386a:	7a62      	ldrb	r2, [r4, #9]
 200386c:	8023      	strh	r3, [r4, #0]
 200386e:	2a0a      	cmp	r2, #10
 2003870:	70a3      	strb	r3, [r4, #2]
 2003872:	d008      	beq.n	2003886 <mac_opti_reinit+0x22>
 2003874:	f003 fdee 	bl	2007454 <rt_is_mesh_route_policy>
 2003878:	b108      	cbz	r0, 200387e <mac_opti_reinit+0x1a>
 200387a:	2301      	movs	r3, #1
 200387c:	7023      	strb	r3, [r4, #0]
 200387e:	e8bd 4010 	ldmia.w	sp!, {r4, lr}
 2003882:	f043 b827 	b.w	20468d4 <nm_assoc_reset_mesh_rpt>
 2003886:	2302      	movs	r3, #2
 2003888:	7023      	strb	r3, [r4, #0]
 200388a:	e8bd 4010 	ldmia.w	sp!, {r4, lr}
 200388e:	f043 b821 	b.w	20468d4 <nm_assoc_reset_mesh_rpt>
 2003892:	bf00      	nop
 2003894:	0200d344 	.word	0x0200d344

02003898 <mac_opti_get_no_bcn_offline_time>:
 2003898:	f242 7010 	movw	r0, #10000	; 0x2710
 200389c:	4b02      	ldr	r3, [pc, #8]	; (20038a8 <mac_opti_get_no_bcn_offline_time+0x10>)
 200389e:	7d5b      	ldrb	r3, [r3, #21]
 20038a0:	fb03 f000 	mul.w	r0, r3, r0
 20038a4:	4770      	bx	lr
 20038a6:	bf00      	nop
 20038a8:	0200d344 	.word	0x0200d344

020038ac <mac_opti_get_pco_rpt_hearbeat_pkt_cycle>:
 20038ac:	f242 7010 	movw	r0, #10000	; 0x2710
 20038b0:	4b02      	ldr	r3, [pc, #8]	; (20038bc <mac_opti_get_pco_rpt_hearbeat_pkt_cycle+0x10>)
 20038b2:	7b5b      	ldrb	r3, [r3, #13]
 20038b4:	fb03 f000 	mul.w	r0, r3, r0
 20038b8:	4770      	bx	lr
 20038ba:	bf00      	nop
 20038bc:	0200d344 	.word	0x0200d344

020038c0 <mac_opti_get_sta_timer_heart_pkt_time>:
 20038c0:	f242 7010 	movw	r0, #10000	; 0x2710
 20038c4:	4b02      	ldr	r3, [pc, #8]	; (20038d0 <mac_opti_get_sta_timer_heart_pkt_time+0x10>)
 20038c6:	7b9b      	ldrb	r3, [r3, #14]
 20038c8:	fb03 f000 	mul.w	r0, r3, r0
 20038cc:	4770      	bx	lr
 20038ce:	bf00      	nop
 20038d0:	0200d344 	.word	0x0200d344

020038d4 <mac_opti_get_wait_proxy_send_bcn_time>:
 20038d4:	4b02      	ldr	r3, [pc, #8]	; (20038e0 <mac_opti_get_wait_proxy_send_bcn_time+0xc>)
 20038d6:	7ad8      	ldrb	r0, [r3, #11]
 20038d8:	eb00 0080 	add.w	r0, r0, r0, lsl #2
 20038dc:	0040      	lsls	r0, r0, #1
 20038de:	4770      	bx	lr
 20038e0:	0200d344 	.word	0x0200d344

020038e4 <mac_opti_get_mesh_end_rpt_time>:
 20038e4:	4b02      	ldr	r3, [pc, #8]	; (20038f0 <mac_opti_get_mesh_end_rpt_time+0xc>)
 20038e6:	7bd8      	ldrb	r0, [r3, #15]
 20038e8:	eb00 0080 	add.w	r0, r0, r0, lsl #2
 20038ec:	0040      	lsls	r0, r0, #1
 20038ee:	4770      	bx	lr
 20038f0:	0200d344 	.word	0x0200d344

020038f4 <mac_opti_set_work_state>:
 20038f4:	4b01      	ldr	r3, [pc, #4]	; (20038fc <mac_opti_set_work_state+0x8>)
 20038f6:	7018      	strb	r0, [r3, #0]
 20038f8:	4770      	bx	lr
 20038fa:	bf00      	nop
 20038fc:	0200d344 	.word	0x0200d344

02003900 <mac_opti_set_head_state>:
 2003900:	4b01      	ldr	r3, [pc, #4]	; (2003908 <mac_opti_set_head_state+0x8>)
 2003902:	7098      	strb	r0, [r3, #2]
 2003904:	4770      	bx	lr
 2003906:	bf00      	nop
 2003908:	0200d344 	.word	0x0200d344

0200390c <mac_opti_set_net_stable_state>:
 200390c:	4b01      	ldr	r3, [pc, #4]	; (2003914 <mac_opti_set_net_stable_state+0x8>)
 200390e:	7058      	strb	r0, [r3, #1]
 2003910:	4770      	bx	lr
 2003912:	bf00      	nop
 2003914:	0200d344 	.word	0x0200d344

02003918 <mac_opti_is_net_stable>:
 2003918:	4b03      	ldr	r3, [pc, #12]	; (2003928 <mac_opti_is_net_stable+0x10>)
 200391a:	7a5a      	ldrb	r2, [r3, #9]
 200391c:	2a0a      	cmp	r2, #10
 200391e:	bf0c      	ite	eq
 2003920:	7858      	ldrbeq	r0, [r3, #1]
 2003922:	2001      	movne	r0, #1
 2003924:	4770      	bx	lr
 2003926:	bf00      	nop
 2003928:	0200d344 	.word	0x0200d344

0200392c <mac_opti_get_work_state>:
 200392c:	4b01      	ldr	r3, [pc, #4]	; (2003934 <mac_opti_get_work_state+0x8>)
 200392e:	7818      	ldrb	r0, [r3, #0]
 2003930:	4770      	bx	lr
 2003932:	bf00      	nop
 2003934:	0200d344 	.word	0x0200d344

02003938 <mac_get_head_type_when_get_rt_fail>:
 2003938:	4b0a      	ldr	r3, [pc, #40]	; (2003964 <mac_get_head_type_when_get_rt_fail+0x2c>)
 200393a:	7818      	ldrb	r0, [r3, #0]
 200393c:	2801      	cmp	r0, #1
 200393e:	d006      	beq.n	200394e <mac_get_head_type_when_get_rt_fail+0x16>
 2003940:	2802      	cmp	r0, #2
 2003942:	d002      	beq.n	200394a <mac_get_head_type_when_get_rt_fail+0x12>
 2003944:	b128      	cbz	r0, 2003952 <mac_get_head_type_when_get_rt_fail+0x1a>
 2003946:	20ff      	movs	r0, #255	; 0xff
 2003948:	4770      	bx	lr
 200394a:	2003      	movs	r0, #3
 200394c:	4770      	bx	lr
 200394e:	2002      	movs	r0, #2
 2003950:	4770      	bx	lr
 2003952:	7a5a      	ldrb	r2, [r3, #9]
 2003954:	2a0a      	cmp	r2, #10
 2003956:	d1f6      	bne.n	2003946 <mac_get_head_type_when_get_rt_fail+0xe>
 2003958:	789b      	ldrb	r3, [r3, #2]
 200395a:	2b00      	cmp	r3, #0
 200395c:	bf08      	it	eq
 200395e:	2003      	moveq	r0, #3
 2003960:	4770      	bx	lr
 2003962:	bf00      	nop
 2003964:	0200d344 	.word	0x0200d344

02003968 <mac_opti_min_rt_cycle_num>:
 2003968:	4b01      	ldr	r3, [pc, #4]	; (2003970 <mac_opti_min_rt_cycle_num+0x8>)
 200396a:	7a18      	ldrb	r0, [r3, #8]
 200396c:	4770      	bx	lr
 200396e:	bf00      	nop
 2003970:	0200d344 	.word	0x0200d344

02003974 <mac_opti_max_rx_queue_size>:
 2003974:	4b01      	ldr	r3, [pc, #4]	; (200397c <mac_opti_max_rx_queue_size+0x8>)
 2003976:	7958      	ldrb	r0, [r3, #5]
 2003978:	4770      	bx	lr
 200397a:	bf00      	nop
 200397c:	0200d344 	.word	0x0200d344

02003980 <ntb_add_duration>:
 2003980:	4408      	add	r0, r1
 2003982:	4770      	bx	lr

02003984 <ntb_get_difference_two_ntb>:
 2003984:	4288      	cmp	r0, r1
 2003986:	4603      	mov	r3, r0
 2003988:	d206      	bcs.n	2003998 <ntb_get_difference_two_ntb+0x14>
 200398a:	1a08      	subs	r0, r1, r0
 200398c:	bf46      	itte	mi
 200398e:	1a59      	submi	r1, r3, r1
 2003990:	f101 30ff 	addmi.w	r0, r1, #4294967295	; 0xffffffff
 2003994:	4240      	negpl	r0, r0
 2003996:	4770      	bx	lr
 2003998:	1a40      	subs	r0, r0, r1
 200399a:	bf44      	itt	mi
 200399c:	f101 31ff 	addmi.w	r1, r1, #4294967295	; 0xffffffff
 20039a0:	1a58      	submi	r0, r3, r1
 20039a2:	4770      	bx	lr

020039a4 <mac_time_add_duration>:
 20039a4:	4408      	add	r0, r1
 20039a6:	4770      	bx	lr

020039a8 <mac_time_sub_duration>:
 20039a8:	1a40      	subs	r0, r0, r1
 20039aa:	4770      	bx	lr

020039ac <mac_time_get_duration>:
 20039ac:	4281      	cmp	r1, r0
 20039ae:	bf36      	itet	cc
 20039b0:	1a09      	subcc	r1, r1, r0
 20039b2:	1a08      	subcs	r0, r1, r0
 20039b4:	f101 30ff 	addcc.w	r0, r1, #4294967295	; 0xffffffff
 20039b8:	4770      	bx	lr
 20039ba:	bf00      	nop

020039bc <mac_get_diff_two_time>:
 20039bc:	4288      	cmp	r0, r1
 20039be:	4603      	mov	r3, r0
 20039c0:	d206      	bcs.n	20039d0 <mac_get_diff_two_time+0x14>
 20039c2:	1a08      	subs	r0, r1, r0
 20039c4:	bf46      	itte	mi
 20039c6:	1a59      	submi	r1, r3, r1
 20039c8:	f101 30ff 	addmi.w	r0, r1, #4294967295	; 0xffffffff
 20039cc:	4240      	negpl	r0, r0
 20039ce:	4770      	bx	lr
 20039d0:	1a40      	subs	r0, r0, r1
 20039d2:	bf44      	itt	mi
 20039d4:	f101 31ff 	addmi.w	r1, r1, #4294967295	; 0xffffffff
 20039d8:	1a58      	submi	r0, r3, r1
 20039da:	4770      	bx	lr

020039dc <mac_get_absolute_value_diff>:
 20039dc:	4288      	cmp	r0, r1
 20039de:	bf8c      	ite	hi
 20039e0:	1a40      	subhi	r0, r0, r1
 20039e2:	1a08      	subls	r0, r1, r0
 20039e4:	4770      	bx	lr
 20039e6:	bf00      	nop

020039e8 <mac_is_mac_zero>:
 20039e8:	1e43      	subs	r3, r0, #1
 20039ea:	3005      	adds	r0, #5
 20039ec:	f813 2f01 	ldrb.w	r2, [r3, #1]!
 20039f0:	b91a      	cbnz	r2, 20039fa <mac_is_mac_zero+0x12>
 20039f2:	4283      	cmp	r3, r0
 20039f4:	d1fa      	bne.n	20039ec <mac_is_mac_zero+0x4>
 20039f6:	2001      	movs	r0, #1
 20039f8:	4770      	bx	lr
 20039fa:	2000      	movs	r0, #0
 20039fc:	4770      	bx	lr
 20039fe:	bf00      	nop

02003a00 <mac_is_broadcast_mac>:
 2003a00:	b150      	cbz	r0, 2003a18 <mac_is_broadcast_mac+0x18>
 2003a02:	1e43      	subs	r3, r0, #1
 2003a04:	3005      	adds	r0, #5
 2003a06:	f813 2f01 	ldrb.w	r2, [r3, #1]!
 2003a0a:	2aff      	cmp	r2, #255	; 0xff
 2003a0c:	d103      	bne.n	2003a16 <mac_is_broadcast_mac+0x16>
 2003a0e:	4283      	cmp	r3, r0
 2003a10:	d1f9      	bne.n	2003a06 <mac_is_broadcast_mac+0x6>
 2003a12:	2001      	movs	r0, #1
 2003a14:	4770      	bx	lr
 2003a16:	2000      	movs	r0, #0
 2003a18:	4770      	bx	lr
 2003a1a:	bf00      	nop

02003a1c <mac_is_local_broadcast_mac>:
 2003a1c:	4603      	mov	r3, r0
 2003a1e:	b150      	cbz	r0, 2003a36 <mac_is_local_broadcast_mac+0x1a>
 2003a20:	7800      	ldrb	r0, [r0, #0]
 2003a22:	b940      	cbnz	r0, 2003a36 <mac_is_local_broadcast_mac+0x1a>
 2003a24:	1d59      	adds	r1, r3, #5
 2003a26:	f813 2f01 	ldrb.w	r2, [r3, #1]!
 2003a2a:	2aff      	cmp	r2, #255	; 0xff
 2003a2c:	d104      	bne.n	2003a38 <mac_is_local_broadcast_mac+0x1c>
 2003a2e:	428b      	cmp	r3, r1
 2003a30:	d1f9      	bne.n	2003a26 <mac_is_local_broadcast_mac+0xa>
 2003a32:	2001      	movs	r0, #1
 2003a34:	4770      	bx	lr
 2003a36:	2000      	movs	r0, #0
 2003a38:	4770      	bx	lr
 2003a3a:	bf00      	nop

02003a3c <mac_is_mac_valid>:
 2003a3c:	b510      	push	{r4, lr}
 2003a3e:	4604      	mov	r4, r0
 2003a40:	b120      	cbz	r0, 2003a4c <mac_is_mac_valid+0x10>
 2003a42:	2206      	movs	r2, #6
 2003a44:	4906      	ldr	r1, [pc, #24]	; (2003a60 <mac_is_mac_valid+0x24>)
 2003a46:	f203 fe11 	bl	220766c <memcmp>
 2003a4a:	b900      	cbnz	r0, 2003a4e <mac_is_mac_valid+0x12>
 2003a4c:	bd10      	pop	{r4, pc}
 2003a4e:	2206      	movs	r2, #6
 2003a50:	4620      	mov	r0, r4
 2003a52:	4904      	ldr	r1, [pc, #16]	; (2003a64 <mac_is_mac_valid+0x28>)
 2003a54:	f203 fe0a 	bl	220766c <memcmp>
 2003a58:	3800      	subs	r0, #0
 2003a5a:	bf18      	it	ne
 2003a5c:	2001      	movne	r0, #1
 2003a5e:	bd10      	pop	{r4, pc}
 2003a60:	02007ef4 	.word	0x02007ef4
 2003a64:	02008630 	.word	0x02008630

02003a68 <mac_judge_snid_is_valid>:
 2003a68:	f06f 407f 	mvn.w	r0, #4278190080	; 0xff000000
 2003a6c:	3901      	subs	r1, #1
 2003a6e:	4281      	cmp	r1, r0
 2003a70:	bf2c      	ite	cs
 2003a72:	2000      	movcs	r0, #0
 2003a74:	2001      	movcc	r0, #1
 2003a76:	4770      	bx	lr

02003a78 <mac_judge_snid_is_over_max>:
 2003a78:	f1b0 7f80 	cmp.w	r0, #16777216	; 0x1000000
 2003a7c:	bf34      	ite	cc
 2003a7e:	2000      	movcc	r0, #0
 2003a80:	2001      	movcs	r0, #1
 2003a82:	4770      	bx	lr

02003a84 <mac_tei_is_valid>:
 2003a84:	b510      	push	{r4, lr}
 2003a86:	4604      	mov	r4, r0
 2003a88:	b900      	cbnz	r0, 2003a8c <mac_tei_is_valid+0x8>
 2003a8a:	bd10      	pop	{r4, pc}
 2003a8c:	f049 fbe6 	bl	204d25c <uapi_topo_get_max_tei>
 2003a90:	42a0      	cmp	r0, r4
 2003a92:	bf34      	ite	cc
 2003a94:	2000      	movcc	r0, #0
 2003a96:	2001      	movcs	r0, #1
 2003a98:	bd10      	pop	{r4, pc}
 2003a9a:	bf00      	nop

02003a9c <mac_do_alpha_filter_u8>:
 2003a9c:	b510      	push	{r4, lr}
 2003a9e:	9c02      	ldr	r4, [sp, #8]
 2003aa0:	b314      	cbz	r4, 2003ae8 <mac_do_alpha_filter_u8+0x4c>
 2003aa2:	b30b      	cbz	r3, 2003ae8 <mac_do_alpha_filter_u8+0x4c>
 2003aa4:	4291      	cmp	r1, r2
 2003aa6:	d920      	bls.n	2003aea <mac_do_alpha_filter_u8+0x4e>
 2003aa8:	f64f 7cff 	movw	ip, #65535	; 0xffff
 2003aac:	f8b4 e000 	ldrh.w	lr, [r4]
 2003ab0:	45e6      	cmp	lr, ip
 2003ab2:	d01a      	beq.n	2003aea <mac_do_alpha_filter_u8+0x4e>
 2003ab4:	fb03 f000 	mul.w	r0, r3, r0
 2003ab8:	ea4f 0c51 	mov.w	ip, r1, lsr #1
 2003abc:	fb02 c000 	mla	r0, r2, r0, ip
 2003ac0:	1a8a      	subs	r2, r1, r2
 2003ac2:	fb0e 0002 	mla	r0, lr, r2, r0
 2003ac6:	f64f 72fe 	movw	r2, #65534	; 0xfffe
 2003aca:	fbb0 f0f1 	udiv	r0, r0, r1
 2003ace:	4282      	cmp	r2, r0
 2003ad0:	bf28      	it	cs
 2003ad2:	4602      	movcs	r2, r0
 2003ad4:	eb00 0053 	add.w	r0, r0, r3, lsr #1
 2003ad8:	fbb0 f0f3 	udiv	r0, r0, r3
 2003adc:	b280      	uxth	r0, r0
 2003ade:	28ff      	cmp	r0, #255	; 0xff
 2003ae0:	bf28      	it	cs
 2003ae2:	20ff      	movcs	r0, #255	; 0xff
 2003ae4:	8022      	strh	r2, [r4, #0]
 2003ae6:	b2c0      	uxtb	r0, r0
 2003ae8:	bd10      	pop	{r4, pc}
 2003aea:	fb00 f303 	mul.w	r3, r0, r3
 2003aee:	8023      	strh	r3, [r4, #0]
 2003af0:	bd10      	pop	{r4, pc}
 2003af2:	bf00      	nop

02003af4 <mac_time_get_duration_not_ntb>:
 2003af4:	f64f 73ff 	movw	r3, #65535	; 0xffff
 2003af8:	f5b2 3f80 	cmp.w	r2, #65536	; 0x10000
 2003afc:	bf28      	it	cs
 2003afe:	f04f 33ff 	movcs.w	r3, #4294967295	; 0xffffffff
 2003b02:	4281      	cmp	r1, r0
 2003b04:	bf36      	itet	cc
 2003b06:	1a09      	subcc	r1, r1, r0
 2003b08:	1a08      	subcs	r0, r1, r0
 2003b0a:	18c8      	addcc	r0, r1, r3
 2003b0c:	4770      	bx	lr
 2003b0e:	bf00      	nop

02003b10 <uapi_mac_cp_init>:
 2003b10:	4801      	ldr	r0, [pc, #4]	; (2003b18 <uapi_mac_cp_init+0x8>)
 2003b12:	f20b bfbf 	b.w	220fa94 <uapi_list_init>
 2003b16:	bf00      	nop
 2003b18:	0200d35c 	.word	0x0200d35c

02003b1c <uapi_mac_add_component>:
 2003b1c:	b410      	push	{r4}
 2003b1e:	4c0a      	ldr	r4, [pc, #40]	; (2003b48 <uapi_mac_add_component+0x2c>)
 2003b20:	4601      	mov	r1, r0
 2003b22:	6862      	ldr	r2, [r4, #4]
 2003b24:	42a2      	cmp	r2, r4
 2003b26:	6853      	ldr	r3, [r2, #4]
 2003b28:	d008      	beq.n	2003b3c <uapi_mac_add_component+0x20>
 2003b2a:	4282      	cmp	r2, r0
 2003b2c:	d102      	bne.n	2003b34 <uapi_mac_add_component+0x18>
 2003b2e:	e009      	b.n	2003b44 <uapi_mac_add_component+0x28>
 2003b30:	4291      	cmp	r1, r2
 2003b32:	d007      	beq.n	2003b44 <uapi_mac_add_component+0x28>
 2003b34:	461a      	mov	r2, r3
 2003b36:	42a2      	cmp	r2, r4
 2003b38:	685b      	ldr	r3, [r3, #4]
 2003b3a:	d1f9      	bne.n	2003b30 <uapi_mac_add_component+0x14>
 2003b3c:	4802      	ldr	r0, [pc, #8]	; (2003b48 <uapi_mac_add_component+0x2c>)
 2003b3e:	bc10      	pop	{r4}
 2003b40:	f20b bfb4 	b.w	220faac <uapi_list_tail_insert>
 2003b44:	bc10      	pop	{r4}
 2003b46:	4770      	bx	lr
 2003b48:	0200d35c 	.word	0x0200d35c

02003b4c <mac_component_init>:
 2003b4c:	b538      	push	{r3, r4, r5, lr}
 2003b4e:	4d06      	ldr	r5, [pc, #24]	; (2003b68 <mac_component_init+0x1c>)
 2003b50:	686b      	ldr	r3, [r5, #4]
 2003b52:	42ab      	cmp	r3, r5
 2003b54:	685c      	ldr	r4, [r3, #4]
 2003b56:	d006      	beq.n	2003b66 <mac_component_init+0x1a>
 2003b58:	68db      	ldr	r3, [r3, #12]
 2003b5a:	b103      	cbz	r3, 2003b5e <mac_component_init+0x12>
 2003b5c:	4798      	blx	r3
 2003b5e:	4623      	mov	r3, r4
 2003b60:	42ab      	cmp	r3, r5
 2003b62:	6864      	ldr	r4, [r4, #4]
 2003b64:	d1f8      	bne.n	2003b58 <mac_component_init+0xc>
 2003b66:	bd38      	pop	{r3, r4, r5, pc}
 2003b68:	0200d35c 	.word	0x0200d35c

02003b6c <mac_component_reinit>:
 2003b6c:	b538      	push	{r3, r4, r5, lr}
 2003b6e:	4d06      	ldr	r5, [pc, #24]	; (2003b88 <mac_component_reinit+0x1c>)
 2003b70:	686b      	ldr	r3, [r5, #4]
 2003b72:	42ab      	cmp	r3, r5
 2003b74:	685c      	ldr	r4, [r3, #4]
 2003b76:	d006      	beq.n	2003b86 <mac_component_reinit+0x1a>
 2003b78:	691b      	ldr	r3, [r3, #16]
 2003b7a:	b103      	cbz	r3, 2003b7e <mac_component_reinit+0x12>
 2003b7c:	4798      	blx	r3
 2003b7e:	4623      	mov	r3, r4
 2003b80:	42ab      	cmp	r3, r5
 2003b82:	6864      	ldr	r4, [r4, #4]
 2003b84:	d1f8      	bne.n	2003b78 <mac_component_reinit+0xc>
 2003b86:	bd38      	pop	{r3, r4, r5, pc}
 2003b88:	0200d35c 	.word	0x0200d35c

02003b8c <mac_component_handle_msg>:
 2003b8c:	b570      	push	{r4, r5, r6, lr}
 2003b8e:	4d07      	ldr	r5, [pc, #28]	; (2003bac <mac_component_handle_msg+0x20>)
 2003b90:	686b      	ldr	r3, [r5, #4]
 2003b92:	42ab      	cmp	r3, r5
 2003b94:	685c      	ldr	r4, [r3, #4]
 2003b96:	d008      	beq.n	2003baa <mac_component_handle_msg+0x1e>
 2003b98:	4606      	mov	r6, r0
 2003b9a:	695b      	ldr	r3, [r3, #20]
 2003b9c:	b10b      	cbz	r3, 2003ba2 <mac_component_handle_msg+0x16>
 2003b9e:	4630      	mov	r0, r6
 2003ba0:	4798      	blx	r3
 2003ba2:	4623      	mov	r3, r4
 2003ba4:	42ab      	cmp	r3, r5
 2003ba6:	6864      	ldr	r4, [r4, #4]
 2003ba8:	d1f7      	bne.n	2003b9a <mac_component_handle_msg+0xe>
 2003baa:	bd70      	pop	{r4, r5, r6, pc}
 2003bac:	0200d35c 	.word	0x0200d35c

02003bb0 <mac_component_refresh_nv>:
 2003bb0:	b570      	push	{r4, r5, r6, lr}
 2003bb2:	4d08      	ldr	r5, [pc, #32]	; (2003bd4 <mac_component_refresh_nv+0x24>)
 2003bb4:	686b      	ldr	r3, [r5, #4]
 2003bb6:	42ab      	cmp	r3, r5
 2003bb8:	685c      	ldr	r4, [r3, #4]
 2003bba:	d009      	beq.n	2003bd0 <mac_component_refresh_nv+0x20>
 2003bbc:	4606      	mov	r6, r0
 2003bbe:	699b      	ldr	r3, [r3, #24]
 2003bc0:	b113      	cbz	r3, 2003bc8 <mac_component_refresh_nv+0x18>
 2003bc2:	4630      	mov	r0, r6
 2003bc4:	4798      	blx	r3
 2003bc6:	b118      	cbz	r0, 2003bd0 <mac_component_refresh_nv+0x20>
 2003bc8:	4623      	mov	r3, r4
 2003bca:	42ab      	cmp	r3, r5
 2003bcc:	6864      	ldr	r4, [r4, #4]
 2003bce:	d1f6      	bne.n	2003bbe <mac_component_refresh_nv+0xe>
 2003bd0:	bd70      	pop	{r4, r5, r6, pc}
 2003bd2:	bf00      	nop
 2003bd4:	0200d35c 	.word	0x0200d35c

02003bd8 <mac_component_get_statistics>:
 2003bd8:	e92d 41f0 	stmdb	sp!, {r4, r5, r6, r7, r8, lr}
 2003bdc:	4d0b      	ldr	r5, [pc, #44]	; (2003c0c <mac_component_get_statistics+0x34>)
 2003bde:	686b      	ldr	r3, [r5, #4]
 2003be0:	42ab      	cmp	r3, r5
 2003be2:	685c      	ldr	r4, [r3, #4]
 2003be4:	d00d      	beq.n	2003c02 <mac_component_get_statistics+0x2a>
 2003be6:	4680      	mov	r8, r0
 2003be8:	460f      	mov	r7, r1
 2003bea:	4616      	mov	r6, r2
 2003bec:	69db      	ldr	r3, [r3, #28]
 2003bee:	b123      	cbz	r3, 2003bfa <mac_component_get_statistics+0x22>
 2003bf0:	463a      	mov	r2, r7
 2003bf2:	4641      	mov	r1, r8
 2003bf4:	4630      	mov	r0, r6
 2003bf6:	4798      	blx	r3
 2003bf8:	b128      	cbz	r0, 2003c06 <mac_component_get_statistics+0x2e>
 2003bfa:	4623      	mov	r3, r4
 2003bfc:	42ab      	cmp	r3, r5
 2003bfe:	6864      	ldr	r4, [r4, #4]
 2003c00:	d1f4      	bne.n	2003bec <mac_component_get_statistics+0x14>
 2003c02:	f04f 30ff 	mov.w	r0, #4294967295	; 0xffffffff
 2003c06:	e8bd 81f0 	ldmia.w	sp!, {r4, r5, r6, r7, r8, pc}
 2003c0a:	bf00      	nop
 2003c0c:	0200d35c 	.word	0x0200d35c

02003c10 <uapi_mc_send_msg>:
 2003c10:	f002 bdec 	b.w	20067ec <nm_send_msg>

02003c14 <mf_get_pb_crc_size>:
 2003c14:	4b06      	ldr	r3, [pc, #24]	; (2003c30 <mf_get_pb_crc_size+0x1c>)
 2003c16:	88da      	ldrh	r2, [r3, #6]
 2003c18:	4282      	cmp	r2, r0
 2003c1a:	d005      	beq.n	2003c28 <mf_get_pb_crc_size+0x14>
 2003c1c:	89d9      	ldrh	r1, [r3, #14]
 2003c1e:	f103 0208 	add.w	r2, r3, #8
 2003c22:	4281      	cmp	r1, r0
 2003c24:	bf08      	it	eq
 2003c26:	4613      	moveq	r3, r2
 2003c28:	7818      	ldrb	r0, [r3, #0]
 2003c2a:	f3c0 00c3 	ubfx	r0, r0, #3, #4
 2003c2e:	4770      	bx	lr
 2003c30:	02008e10 	.word	0x02008e10

02003c34 <mf_get_mac_head_size>:
 2003c34:	4b0b      	ldr	r3, [pc, #44]	; (2003c64 <mf_get_mac_head_size+0x30>)
 2003c36:	88da      	ldrh	r2, [r3, #6]
 2003c38:	4282      	cmp	r2, r0
 2003c3a:	d006      	beq.n	2003c4a <mf_get_mac_head_size+0x16>
 2003c3c:	f8b3 c00e 	ldrh.w	ip, [r3, #14]
 2003c40:	f103 0208 	add.w	r2, r3, #8
 2003c44:	4584      	cmp	ip, r0
 2003c46:	bf08      	it	eq
 2003c48:	4613      	moveq	r3, r2
 2003c4a:	b139      	cbz	r1, 2003c5c <mf_get_mac_head_size+0x28>
 2003c4c:	2902      	cmp	r1, #2
 2003c4e:	d003      	beq.n	2003c58 <mf_get_mac_head_size+0x24>
 2003c50:	8898      	ldrh	r0, [r3, #4]
 2003c52:	f3c0 1087 	ubfx	r0, r0, #6, #8
 2003c56:	4770      	bx	lr
 2003c58:	2024      	movs	r0, #36	; 0x24
 2003c5a:	4770      	bx	lr
 2003c5c:	7918      	ldrb	r0, [r3, #4]
 2003c5e:	f000 003f 	and.w	r0, r0, #63	; 0x3f
 2003c62:	4770      	bx	lr
 2003c64:	02008e10 	.word	0x02008e10

02003c68 <mf_get_msdu_size_max_for_four_pb>:
 2003c68:	4b12      	ldr	r3, [pc, #72]	; (2003cb4 <mf_get_msdu_size_max_for_four_pb+0x4c>)
 2003c6a:	88da      	ldrh	r2, [r3, #6]
 2003c6c:	4282      	cmp	r2, r0
 2003c6e:	d002      	beq.n	2003c76 <mf_get_msdu_size_max_for_four_pb+0xe>
 2003c70:	89da      	ldrh	r2, [r3, #14]
 2003c72:	4282      	cmp	r2, r0
 2003c74:	d019      	beq.n	2003caa <mf_get_msdu_size_max_for_four_pb+0x42>
 2003c76:	6818      	ldr	r0, [r3, #0]
 2003c78:	4b0e      	ldr	r3, [pc, #56]	; (2003cb4 <mf_get_msdu_size_max_for_four_pb+0x4c>)
 2003c7a:	f3c0 10c9 	ubfx	r0, r0, #7, #10
 2003c7e:	b169      	cbz	r1, 2003c9c <mf_get_msdu_size_max_for_four_pb+0x34>
 2003c80:	2902      	cmp	r1, #2
 2003c82:	d006      	beq.n	2003c92 <mf_get_msdu_size_max_for_four_pb+0x2a>
 2003c84:	889b      	ldrh	r3, [r3, #4]
 2003c86:	3804      	subs	r0, #4
 2003c88:	f3c3 1387 	ubfx	r3, r3, #6, #8
 2003c8c:	1ac0      	subs	r0, r0, r3
 2003c8e:	b280      	uxth	r0, r0
 2003c90:	4770      	bx	lr
 2003c92:	2324      	movs	r3, #36	; 0x24
 2003c94:	3804      	subs	r0, #4
 2003c96:	1ac0      	subs	r0, r0, r3
 2003c98:	b280      	uxth	r0, r0
 2003c9a:	4770      	bx	lr
 2003c9c:	791b      	ldrb	r3, [r3, #4]
 2003c9e:	3804      	subs	r0, #4
 2003ca0:	f003 033f 	and.w	r3, r3, #63	; 0x3f
 2003ca4:	1ac0      	subs	r0, r0, r3
 2003ca6:	b280      	uxth	r0, r0
 2003ca8:	4770      	bx	lr
 2003caa:	f853 0f08 	ldr.w	r0, [r3, #8]!
 2003cae:	f3c0 10c9 	ubfx	r0, r0, #7, #10
 2003cb2:	e7e4      	b.n	2003c7e <mf_get_msdu_size_max_for_four_pb+0x16>
 2003cb4:	02008e10 	.word	0x02008e10

02003cb8 <mf_get_msdu_size_max_for_one_pb>:
 2003cb8:	4b12      	ldr	r3, [pc, #72]	; (2003d04 <mf_get_msdu_size_max_for_one_pb+0x4c>)
 2003cba:	88da      	ldrh	r2, [r3, #6]
 2003cbc:	4282      	cmp	r2, r0
 2003cbe:	d002      	beq.n	2003cc6 <mf_get_msdu_size_max_for_one_pb+0xe>
 2003cc0:	89da      	ldrh	r2, [r3, #14]
 2003cc2:	4282      	cmp	r2, r0
 2003cc4:	d019      	beq.n	2003cfa <mf_get_msdu_size_max_for_one_pb+0x42>
 2003cc6:	6818      	ldr	r0, [r3, #0]
 2003cc8:	4b0e      	ldr	r3, [pc, #56]	; (2003d04 <mf_get_msdu_size_max_for_one_pb+0x4c>)
 2003cca:	f3c0 10c9 	ubfx	r0, r0, #7, #10
 2003cce:	b169      	cbz	r1, 2003cec <mf_get_msdu_size_max_for_one_pb+0x34>
 2003cd0:	2902      	cmp	r1, #2
 2003cd2:	d006      	beq.n	2003ce2 <mf_get_msdu_size_max_for_one_pb+0x2a>
 2003cd4:	889b      	ldrh	r3, [r3, #4]
 2003cd6:	3804      	subs	r0, #4
 2003cd8:	f3c3 1387 	ubfx	r3, r3, #6, #8
 2003cdc:	1ac0      	subs	r0, r0, r3
 2003cde:	b280      	uxth	r0, r0
 2003ce0:	4770      	bx	lr
 2003ce2:	2324      	movs	r3, #36	; 0x24
 2003ce4:	3804      	subs	r0, #4
 2003ce6:	1ac0      	subs	r0, r0, r3
 2003ce8:	b280      	uxth	r0, r0
 2003cea:	4770      	bx	lr
 2003cec:	791b      	ldrb	r3, [r3, #4]
 2003cee:	3804      	subs	r0, #4
 2003cf0:	f003 033f 	and.w	r3, r3, #63	; 0x3f
 2003cf4:	1ac0      	subs	r0, r0, r3
 2003cf6:	b280      	uxth	r0, r0
 2003cf8:	4770      	bx	lr
 2003cfa:	f853 0f08 	ldr.w	r0, [r3, #8]!
 2003cfe:	f3c0 10c9 	ubfx	r0, r0, #7, #10
 2003d02:	e7e4      	b.n	2003cce <mf_get_msdu_size_max_for_one_pb+0x16>
 2003d04:	02008e10 	.word	0x02008e10

02003d08 <mf_get_pb_size_by_msdu_size>:
 2003d08:	b530      	push	{r4, r5, lr}
 2003d0a:	4b1d      	ldr	r3, [pc, #116]	; (2003d80 <mf_get_pb_size_by_msdu_size+0x78>)
 2003d0c:	b2d4      	uxtb	r4, r2
 2003d0e:	f8b3 e006 	ldrh.w	lr, [r3, #6]
 2003d12:	4574      	cmp	r4, lr
 2003d14:	d02a      	beq.n	2003d6c <mf_get_pb_size_by_msdu_size+0x64>
 2003d16:	89dd      	ldrh	r5, [r3, #14]
 2003d18:	f103 0c08 	add.w	ip, r3, #8
 2003d1c:	42a5      	cmp	r5, r4
 2003d1e:	bf18      	it	ne
 2003d20:	469c      	movne	ip, r3
 2003d22:	b1f1      	cbz	r1, 2003d62 <mf_get_pb_size_by_msdu_size+0x5a>
 2003d24:	2902      	cmp	r1, #2
 2003d26:	d01a      	beq.n	2003d5e <mf_get_pb_size_by_msdu_size+0x56>
 2003d28:	f8bc 1004 	ldrh.w	r1, [ip, #4]
 2003d2c:	f3c1 1187 	ubfx	r1, r1, #6, #8
 2003d30:	4408      	add	r0, r1
 2003d32:	4572      	cmp	r2, lr
 2003d34:	b280      	uxth	r0, r0
 2003d36:	d002      	beq.n	2003d3e <mf_get_pb_size_by_msdu_size+0x36>
 2003d38:	89d9      	ldrh	r1, [r3, #14]
 2003d3a:	4291      	cmp	r1, r2
 2003d3c:	d018      	beq.n	2003d70 <mf_get_pb_size_by_msdu_size+0x68>
 2003d3e:	781b      	ldrb	r3, [r3, #0]
 2003d40:	4a0f      	ldr	r2, [pc, #60]	; (2003d80 <mf_get_pb_size_by_msdu_size+0x78>)
 2003d42:	f3c3 03c3 	ubfx	r3, r3, #3, #4
 2003d46:	4418      	add	r0, r3
 2003d48:	b280      	uxth	r0, r0
 2003d4a:	7813      	ldrb	r3, [r2, #0]
 2003d4c:	3004      	adds	r0, #4
 2003d4e:	f003 0307 	and.w	r3, r3, #7
 2003d52:	4418      	add	r0, r3
 2003d54:	b280      	uxth	r0, r0
 2003d56:	e8bd 4030 	ldmia.w	sp!, {r4, r5, lr}
 2003d5a:	f7ff bbdf 	b.w	200351c <mac_buffer_data_length>
 2003d5e:	2124      	movs	r1, #36	; 0x24
 2003d60:	e7e6      	b.n	2003d30 <mf_get_pb_size_by_msdu_size+0x28>
 2003d62:	f89c 1004 	ldrb.w	r1, [ip, #4]
 2003d66:	f001 013f 	and.w	r1, r1, #63	; 0x3f
 2003d6a:	e7e1      	b.n	2003d30 <mf_get_pb_size_by_msdu_size+0x28>
 2003d6c:	469c      	mov	ip, r3
 2003d6e:	e7d8      	b.n	2003d22 <mf_get_pb_size_by_msdu_size+0x1a>
 2003d70:	7a1b      	ldrb	r3, [r3, #8]
 2003d72:	4a04      	ldr	r2, [pc, #16]	; (2003d84 <mf_get_pb_size_by_msdu_size+0x7c>)
 2003d74:	f3c3 03c3 	ubfx	r3, r3, #3, #4
 2003d78:	4418      	add	r0, r3
 2003d7a:	b280      	uxth	r0, r0
 2003d7c:	e7e5      	b.n	2003d4a <mf_get_pb_size_by_msdu_size+0x42>
 2003d7e:	bf00      	nop
 2003d80:	02008e10 	.word	0x02008e10
 2003d84:	02008e18 	.word	0x02008e18

02003d88 <mf_get_pb_size_by_msdu_size_mesh>:
 2003d88:	3030      	adds	r0, #48	; 0x30
 2003d8a:	f7ff bbc7 	b.w	200351c <mac_buffer_data_length>
 2003d8e:	bf00      	nop

02003d90 <mf_get_pb_size_by_msdu_size_for_beacon>:
 2003d90:	4b09      	ldr	r3, [pc, #36]	; (2003db8 <mf_get_pb_size_by_msdu_size_for_beacon+0x28>)
 2003d92:	88da      	ldrh	r2, [r3, #6]
 2003d94:	428a      	cmp	r2, r1
 2003d96:	d006      	beq.n	2003da6 <mf_get_pb_size_by_msdu_size_for_beacon+0x16>
 2003d98:	f8b3 c00e 	ldrh.w	ip, [r3, #14]
 2003d9c:	f103 0208 	add.w	r2, r3, #8
 2003da0:	458c      	cmp	ip, r1
 2003da2:	bf08      	it	eq
 2003da4:	4613      	moveq	r3, r2
 2003da6:	781b      	ldrb	r3, [r3, #0]
 2003da8:	1d02      	adds	r2, r0, #4
 2003daa:	f3c3 00c3 	ubfx	r0, r3, #3, #4
 2003dae:	4410      	add	r0, r2
 2003db0:	b280      	uxth	r0, r0
 2003db2:	f7ff bbb3 	b.w	200351c <mac_buffer_data_length>
 2003db6:	bf00      	nop
 2003db8:	02008e10 	.word	0x02008e10

02003dbc <mf_get_pb_fixed_part_size_by_sof>:
 2003dbc:	b510      	push	{r4, lr}
 2003dbe:	4a19      	ldr	r2, [pc, #100]	; (2003e24 <mf_get_pb_fixed_part_size_by_sof+0x68>)
 2003dc0:	fa5f fe80 	uxtb.w	lr, r0
 2003dc4:	f8b2 c006 	ldrh.w	ip, [r2, #6]
 2003dc8:	45e6      	cmp	lr, ip
 2003dca:	d022      	beq.n	2003e12 <mf_get_pb_fixed_part_size_by_sof+0x56>
 2003dcc:	89d4      	ldrh	r4, [r2, #14]
 2003dce:	f102 0308 	add.w	r3, r2, #8
 2003dd2:	4574      	cmp	r4, lr
 2003dd4:	bf18      	it	ne
 2003dd6:	4613      	movne	r3, r2
 2003dd8:	b1b9      	cbz	r1, 2003e0a <mf_get_pb_fixed_part_size_by_sof+0x4e>
 2003dda:	2902      	cmp	r1, #2
 2003ddc:	d013      	beq.n	2003e06 <mf_get_pb_fixed_part_size_by_sof+0x4a>
 2003dde:	889b      	ldrh	r3, [r3, #4]
 2003de0:	f3c3 1387 	ubfx	r3, r3, #6, #8
 2003de4:	4560      	cmp	r0, ip
 2003de6:	d002      	beq.n	2003dee <mf_get_pb_fixed_part_size_by_sof+0x32>
 2003de8:	89d1      	ldrh	r1, [r2, #14]
 2003dea:	4281      	cmp	r1, r0
 2003dec:	d013      	beq.n	2003e16 <mf_get_pb_fixed_part_size_by_sof+0x5a>
 2003dee:	7810      	ldrb	r0, [r2, #0]
 2003df0:	4a0c      	ldr	r2, [pc, #48]	; (2003e24 <mf_get_pb_fixed_part_size_by_sof+0x68>)
 2003df2:	f3c0 00c3 	ubfx	r0, r0, #3, #4
 2003df6:	4403      	add	r3, r0
 2003df8:	7810      	ldrb	r0, [r2, #0]
 2003dfa:	3304      	adds	r3, #4
 2003dfc:	f000 0007 	and.w	r0, r0, #7
 2003e00:	4418      	add	r0, r3
 2003e02:	b280      	uxth	r0, r0
 2003e04:	bd10      	pop	{r4, pc}
 2003e06:	2324      	movs	r3, #36	; 0x24
 2003e08:	e7ec      	b.n	2003de4 <mf_get_pb_fixed_part_size_by_sof+0x28>
 2003e0a:	791b      	ldrb	r3, [r3, #4]
 2003e0c:	f003 033f 	and.w	r3, r3, #63	; 0x3f
 2003e10:	e7e8      	b.n	2003de4 <mf_get_pb_fixed_part_size_by_sof+0x28>
 2003e12:	4613      	mov	r3, r2
 2003e14:	e7e0      	b.n	2003dd8 <mf_get_pb_fixed_part_size_by_sof+0x1c>
 2003e16:	7a10      	ldrb	r0, [r2, #8]
 2003e18:	4a03      	ldr	r2, [pc, #12]	; (2003e28 <mf_get_pb_fixed_part_size_by_sof+0x6c>)
 2003e1a:	f3c0 00c3 	ubfx	r0, r0, #3, #4
 2003e1e:	4403      	add	r3, r0
 2003e20:	e7ea      	b.n	2003df8 <mf_get_pb_fixed_part_size_by_sof+0x3c>
 2003e22:	bf00      	nop
 2003e24:	02008e10 	.word	0x02008e10
 2003e28:	02008e18 	.word	0x02008e18

02003e2c <uapi_load_1901_protocol>:
 2003e2c:	b508      	push	{r3, lr}
 2003e2e:	f034 fe23 	bl	2038a78 <uapi_register_rx_1901_protocol>
 2003e32:	f034 ff19 	bl	2038c68 <uapi_register_tx_1901_protocol>
 2003e36:	f034 fd53 	bl	20388e0 <uapi_register_nm_1901_protocol>
 2003e3a:	f034 fc9f 	bl	203877c <uapi_register_beacon_1901_protocol>
 2003e3e:	e8bd 4008 	ldmia.w	sp!, {r3, lr}
 2003e42:	f034 bcb9 	b.w	20387b8 <uapi_register_ndm_chl_p1901>
 2003e46:	bf00      	nop

02003e48 <uapi_mac_init>:
 2003e48:	b510      	push	{r4, lr}
 2003e4a:	f049 f9c5 	bl	204d1d8 <nm_res_init>
 2003e4e:	4604      	mov	r4, r0
 2003e50:	f058 fdc6 	bl	205c9e0 <mac_res_link_layer_init>
 2003e54:	4404      	add	r4, r0
 2003e56:	f03f fb6f 	bl	2043538 <mac_res_dfx_init>
 2003e5a:	4404      	add	r4, r0
 2003e5c:	f03d f90a 	bl	2041074 <mac_init>
 2003e60:	f058 fdf2 	bl	205ca48 <mac_link_layer_task_create>
 2003e64:	4404      	add	r4, r0
 2003e66:	f049 f99f 	bl	204d1a8 <mac_nm_task_create>
 2003e6a:	4404      	add	r4, r0
 2003e6c:	f03f fb82 	bl	2043574 <mac_res_dfx_task_create>
 2003e70:	42c4      	cmn	r4, r0
 2003e72:	bf14      	ite	ne
 2003e74:	f04f 30ff 	movne.w	r0, #4294967295	; 0xffffffff
 2003e78:	2000      	moveq	r0, #0
 2003e7a:	bd10      	pop	{r4, pc}

02003e7c <sack_parse_sack_packet>:
 2003e7c:	b510      	push	{r4, lr}
 2003e7e:	4b0e      	ldr	r3, [pc, #56]	; (2003eb8 <sack_parse_sack_packet+0x3c>)
 2003e80:	4a0e      	ldr	r2, [pc, #56]	; (2003ebc <sack_parse_sack_packet+0x40>)
 2003e82:	681c      	ldr	r4, [r3, #0]
 2003e84:	4603      	mov	r3, r0
 2003e86:	7900      	ldrb	r0, [r0, #4]
 2003e88:	7999      	ldrb	r1, [r3, #6]
 2003e8a:	f3c0 0003 	ubfx	r0, r0, #0, #4
 2003e8e:	f3c1 1103 	ubfx	r1, r1, #4, #4
 2003e92:	7110      	strb	r0, [r2, #4]
 2003e94:	7b18      	ldrb	r0, [r3, #12]
 2003e96:	7191      	strb	r1, [r2, #6]
 2003e98:	7919      	ldrb	r1, [r3, #4]
 2003e9a:	72d0      	strb	r0, [r2, #11]
 2003e9c:	689b      	ldr	r3, [r3, #8]
 2003e9e:	f3c1 1103 	ubfx	r1, r1, #4, #4
 2003ea2:	f3c3 3307 	ubfx	r3, r3, #12, #8
 2003ea6:	7151      	strb	r1, [r2, #5]
 2003ea8:	71d3      	strb	r3, [r2, #7]
 2003eaa:	b104      	cbz	r4, 2003eae <sack_parse_sack_packet+0x32>
 2003eac:	47a0      	blx	r4
 2003eae:	e8bd 4010 	ldmia.w	sp!, {r4, lr}
 2003eb2:	f003 be9b 	b.w	2007bec <txsm_receive_sof_sack>
 2003eb6:	bf00      	nop
 2003eb8:	0200d364 	.word	0x0200d364
 2003ebc:	0200d368 	.word	0x0200d368

02003ec0 <sack_get_sack_result_info>:
 2003ec0:	4b01      	ldr	r3, [pc, #4]	; (2003ec8 <sack_get_sack_result_info+0x8>)
 2003ec2:	7918      	ldrb	r0, [r3, #4]
 2003ec4:	4770      	bx	lr
 2003ec6:	bf00      	nop
 2003ec8:	0200d368 	.word	0x0200d368

02003ecc <sack_get_reply_snr_value>:
 2003ecc:	4b01      	ldr	r3, [pc, #4]	; (2003ed4 <sack_get_reply_snr_value+0x8>)
 2003ece:	f993 0007 	ldrsb.w	r0, [r3, #7]
 2003ed2:	4770      	bx	lr
 2003ed4:	0200d368 	.word	0x0200d368

02003ed8 <vcs_int>:
 2003ed8:	2200      	movs	r2, #0
 2003eda:	4b01      	ldr	r3, [pc, #4]	; (2003ee0 <vcs_int+0x8>)
 2003edc:	711a      	strb	r2, [r3, #4]
 2003ede:	4770      	bx	lr
 2003ee0:	0200d37c 	.word	0x0200d37c

02003ee4 <flash_partition_get_ver>:
 2003ee4:	b570      	push	{r4, r5, r6, lr}
 2003ee6:	213c      	movs	r1, #60	; 0x3c
 2003ee8:	4606      	mov	r6, r0
 2003eea:	20cc      	movs	r0, #204	; 0xcc
 2003eec:	f20b fa56 	bl	220f39c <uapi_malloc>
 2003ef0:	b1e8      	cbz	r0, 2003f2e <flash_partition_get_ver+0x4a>
 2003ef2:	4601      	mov	r1, r0
 2003ef4:	4604      	mov	r4, r0
 2003ef6:	2301      	movs	r3, #1
 2003ef8:	223c      	movs	r2, #60	; 0x3c
 2003efa:	2004      	movs	r0, #4
 2003efc:	f035 fae0 	bl	20394c0 <nv_read_common>
 2003f00:	4605      	mov	r5, r0
 2003f02:	b128      	cbz	r0, 2003f10 <flash_partition_get_ver+0x2c>
 2003f04:	4621      	mov	r1, r4
 2003f06:	20cc      	movs	r0, #204	; 0xcc
 2003f08:	f20b fa4e 	bl	220f3a8 <uapi_free>
 2003f0c:	4628      	mov	r0, r5
 2003f0e:	bd70      	pop	{r4, r5, r6, pc}
 2003f10:	2304      	movs	r3, #4
 2003f12:	4622      	mov	r2, r4
 2003f14:	4630      	mov	r0, r6
 2003f16:	4619      	mov	r1, r3
 2003f18:	f204 f880 	bl	220801c <memcpy_s>
 2003f1c:	2800      	cmp	r0, #0
 2003f1e:	d0f1      	beq.n	2003f04 <flash_partition_get_ver+0x20>
 2003f20:	4621      	mov	r1, r4
 2003f22:	20cc      	movs	r0, #204	; 0xcc
 2003f24:	f20b fa40 	bl	220f3a8 <uapi_free>
 2003f28:	f04f 35ff 	mov.w	r5, #4294967295	; 0xffffffff
 2003f2c:	e7ee      	b.n	2003f0c <flash_partition_get_ver+0x28>
 2003f2e:	250f      	movs	r5, #15
 2003f30:	4628      	mov	r0, r5
 2003f32:	bd70      	pop	{r4, r5, r6, pc}

02003f34 <uapi_flash_partition_check_ver>:
 2003f34:	b510      	push	{r4, lr}
 2003f36:	4b17      	ldr	r3, [pc, #92]	; (2003f94 <uapi_flash_partition_check_ver+0x60>)
 2003f38:	b082      	sub	sp, #8
 2003f3a:	681b      	ldr	r3, [r3, #0]
 2003f3c:	9301      	str	r3, [sp, #4]
 2003f3e:	f04f 0300 	mov.w	r3, #0
 2003f42:	b1d0      	cbz	r0, 2003f7a <uapi_flash_partition_check_ver+0x46>
 2003f44:	4604      	mov	r4, r0
 2003f46:	4668      	mov	r0, sp
 2003f48:	f7ff ffcc 	bl	2003ee4 <flash_partition_get_ver>
 2003f4c:	b9a8      	cbnz	r0, 2003f7a <uapi_flash_partition_check_ver+0x46>
 2003f4e:	f89d 3001 	ldrb.w	r3, [sp, #1]
 2003f52:	f013 0ff8 	tst.w	r3, #248	; 0xf8
 2003f56:	d010      	beq.n	2003f7a <uapi_flash_partition_check_ver+0x46>
 2003f58:	8862      	ldrh	r2, [r4, #2]
 2003f5a:	f8bd 1002 	ldrh.w	r1, [sp, #2]
 2003f5e:	4211      	tst	r1, r2
 2003f60:	d00b      	beq.n	2003f7a <uapi_flash_partition_check_ver+0x46>
 2003f62:	7862      	ldrb	r2, [r4, #1]
 2003f64:	08d1      	lsrs	r1, r2, #3
 2003f66:	ebb1 0fd3 	cmp.w	r1, r3, lsr #3
 2003f6a:	d306      	bcc.n	2003f7a <uapi_flash_partition_check_ver+0x46>
 2003f6c:	4053      	eors	r3, r2
 2003f6e:	f013 0ff8 	tst.w	r3, #248	; 0xf8
 2003f72:	bf14      	ite	ne
 2003f74:	2001      	movne	r0, #1
 2003f76:	2000      	moveq	r0, #0
 2003f78:	e000      	b.n	2003f7c <uapi_flash_partition_check_ver+0x48>
 2003f7a:	2002      	movs	r0, #2
 2003f7c:	4b05      	ldr	r3, [pc, #20]	; (2003f94 <uapi_flash_partition_check_ver+0x60>)
 2003f7e:	681a      	ldr	r2, [r3, #0]
 2003f80:	9b01      	ldr	r3, [sp, #4]
 2003f82:	405a      	eors	r2, r3
 2003f84:	f04f 0300 	mov.w	r3, #0
 2003f88:	d101      	bne.n	2003f8e <uapi_flash_partition_check_ver+0x5a>
 2003f8a:	b002      	add	sp, #8
 2003f8c:	bd10      	pop	{r4, pc}
 2003f8e:	f200 ffcb 	bl	2204f28 <__stack_chk_fail>
 2003f92:	bf00      	nop
 2003f94:	02000498 	.word	0x02000498

02003f98 <uapi_flash_partition_config>:
 2003f98:	b570      	push	{r4, r5, r6, lr}
 2003f9a:	4b55      	ldr	r3, [pc, #340]	; (20040f0 <uapi_flash_partition_config+0x158>)
 2003f9c:	b082      	sub	sp, #8
 2003f9e:	681b      	ldr	r3, [r3, #0]
 2003fa0:	9301      	str	r3, [sp, #4]
 2003fa2:	f04f 0300 	mov.w	r3, #0
 2003fa6:	2800      	cmp	r0, #0
 2003fa8:	d044      	beq.n	2004034 <uapi_flash_partition_config+0x9c>
 2003faa:	4604      	mov	r4, r0
 2003fac:	460d      	mov	r5, r1
 2003fae:	20cc      	movs	r0, #204	; 0xcc
 2003fb0:	2138      	movs	r1, #56	; 0x38
 2003fb2:	f20b f9f3 	bl	220f39c <uapi_malloc>
 2003fb6:	4606      	mov	r6, r0
 2003fb8:	b350      	cbz	r0, 2004010 <uapi_flash_partition_config+0x78>
 2003fba:	2d43      	cmp	r5, #67	; 0x43
 2003fbc:	d933      	bls.n	2004026 <uapi_flash_partition_config+0x8e>
 2003fbe:	6c23      	ldr	r3, [r4, #64]	; 0x40
 2003fc0:	f3c3 3304 	ubfx	r3, r3, #12, #5
 2003fc4:	2b0c      	cmp	r3, #12
 2003fc6:	d82e      	bhi.n	2004026 <uapi_flash_partition_config+0x8e>
 2003fc8:	3344      	adds	r3, #68	; 0x44
 2003fca:	429d      	cmp	r5, r3
 2003fcc:	d32b      	bcc.n	2004026 <uapi_flash_partition_config+0x8e>
 2003fce:	223c      	movs	r2, #60	; 0x3c
 2003fd0:	4621      	mov	r1, r4
 2003fd2:	4848      	ldr	r0, [pc, #288]	; (20040f4 <uapi_flash_partition_config+0x15c>)
 2003fd4:	f203 fb4a 	bl	220766c <memcmp>
 2003fd8:	b388      	cbz	r0, 200403e <uapi_flash_partition_config+0xa6>
 2003fda:	4668      	mov	r0, sp
 2003fdc:	f7ff ff82 	bl	2003ee4 <flash_partition_get_ver>
 2003fe0:	bb50      	cbnz	r0, 2004038 <uapi_flash_partition_config+0xa0>
 2003fe2:	f89d 3001 	ldrb.w	r3, [sp, #1]
 2003fe6:	f013 0ff8 	tst.w	r3, #248	; 0xf8
 2003fea:	d025      	beq.n	2004038 <uapi_flash_partition_config+0xa0>
 2003fec:	8fe2      	ldrh	r2, [r4, #62]	; 0x3e
 2003fee:	f8bd 1002 	ldrh.w	r1, [sp, #2]
 2003ff2:	4211      	tst	r1, r2
 2003ff4:	d020      	beq.n	2004038 <uapi_flash_partition_config+0xa0>
 2003ff6:	f894 203d 	ldrb.w	r2, [r4, #61]	; 0x3d
 2003ffa:	08d1      	lsrs	r1, r2, #3
 2003ffc:	ebb1 0fd3 	cmp.w	r1, r3, lsr #3
 2004000:	d31a      	bcc.n	2004038 <uapi_flash_partition_config+0xa0>
 2004002:	4053      	eors	r3, r2
 2004004:	f013 0ff8 	tst.w	r3, #248	; 0xf8
 2004008:	d11c      	bne.n	2004044 <uapi_flash_partition_config+0xac>
 200400a:	f641 55b2 	movw	r5, #7602	; 0x1db2
 200400e:	e00c      	b.n	200402a <uapi_flash_partition_config+0x92>
 2004010:	250f      	movs	r5, #15
 2004012:	4b37      	ldr	r3, [pc, #220]	; (20040f0 <uapi_flash_partition_config+0x158>)
 2004014:	681a      	ldr	r2, [r3, #0]
 2004016:	9b01      	ldr	r3, [sp, #4]
 2004018:	405a      	eors	r2, r3
 200401a:	f04f 0300 	mov.w	r3, #0
 200401e:	d165      	bne.n	20040ec <uapi_flash_partition_config+0x154>
 2004020:	4628      	mov	r0, r5
 2004022:	b002      	add	sp, #8
 2004024:	bd70      	pop	{r4, r5, r6, pc}
 2004026:	f641 55b0 	movw	r5, #7600	; 0x1db0
 200402a:	4631      	mov	r1, r6
 200402c:	20cc      	movs	r0, #204	; 0xcc
 200402e:	f20b f9bb 	bl	220f3a8 <uapi_free>
 2004032:	e7ee      	b.n	2004012 <uapi_flash_partition_config+0x7a>
 2004034:	2501      	movs	r5, #1
 2004036:	e7ec      	b.n	2004012 <uapi_flash_partition_config+0x7a>
 2004038:	f641 55b3 	movw	r5, #7603	; 0x1db3
 200403c:	e7f5      	b.n	200402a <uapi_flash_partition_config+0x92>
 200403e:	f641 55b1 	movw	r5, #7601	; 0x1db1
 2004042:	e7f2      	b.n	200402a <uapi_flash_partition_config+0x92>
 2004044:	6c23      	ldr	r3, [r4, #64]	; 0x40
 2004046:	f413 3ff8 	tst.w	r3, #126976	; 0x1f000
 200404a:	f3c3 3204 	ubfx	r2, r3, #12, #5
 200404e:	d104      	bne.n	200405a <uapi_flash_partition_config+0xc2>
 2004050:	e00d      	b.n	200406e <uapi_flash_partition_config+0xd6>
 2004052:	3001      	adds	r0, #1
 2004054:	b2c3      	uxtb	r3, r0
 2004056:	429a      	cmp	r2, r3
 2004058:	d909      	bls.n	200406e <uapi_flash_partition_config+0xd6>
 200405a:	1823      	adds	r3, r4, r0
 200405c:	f893 3044 	ldrb.w	r3, [r3, #68]	; 0x44
 2004060:	f003 031f 	and.w	r3, r3, #31
 2004064:	2b03      	cmp	r3, #3
 2004066:	d8f4      	bhi.n	2004052 <uapi_flash_partition_config+0xba>
 2004068:	f641 55b4 	movw	r5, #7604	; 0x1db4
 200406c:	e7dd      	b.n	200402a <uapi_flash_partition_config+0x92>
 200406e:	223c      	movs	r2, #60	; 0x3c
 2004070:	4621      	mov	r1, r4
 2004072:	2005      	movs	r0, #5
 2004074:	f035 fd06 	bl	2039a84 <uapi_factory_nv_write>
 2004078:	4605      	mov	r5, r0
 200407a:	2800      	cmp	r0, #0
 200407c:	d1d5      	bne.n	200402a <uapi_flash_partition_config+0x92>
 200407e:	2338      	movs	r3, #56	; 0x38
 2004080:	462a      	mov	r2, r5
 2004082:	4619      	mov	r1, r3
 2004084:	4630      	mov	r0, r6
 2004086:	f204 f833 	bl	22080f0 <memset_s>
 200408a:	2308      	movs	r3, #8
 200408c:	4630      	mov	r0, r6
 200408e:	4619      	mov	r1, r3
 2004090:	f104 023c 	add.w	r2, r4, #60	; 0x3c
 2004094:	f203 ffc2 	bl	220801c <memcpy_s>
 2004098:	6c23      	ldr	r3, [r4, #64]	; 0x40
 200409a:	f413 3ff8 	tst.w	r3, #126976	; 0x1f000
 200409e:	d01a      	beq.n	20040d6 <uapi_flash_partition_config+0x13e>
 20040a0:	f106 0208 	add.w	r2, r6, #8
 20040a4:	1963      	adds	r3, r4, r5
 20040a6:	78d1      	ldrb	r1, [r2, #3]
 20040a8:	f893 0044 	ldrb.w	r0, [r3, #68]	; 0x44
 20040ac:	3501      	adds	r5, #1
 20040ae:	f360 0104 	bfi	r1, r0, #0, #5
 20040b2:	70d1      	strb	r1, [r2, #3]
 20040b4:	f893 3044 	ldrb.w	r3, [r3, #68]	; 0x44
 20040b8:	b2c9      	uxtb	r1, r1
 20040ba:	f003 03c0 	and.w	r3, r3, #192	; 0xc0
 20040be:	f043 0320 	orr.w	r3, r3, #32
 20040c2:	f001 011f 	and.w	r1, r1, #31
 20040c6:	430b      	orrs	r3, r1
 20040c8:	70d3      	strb	r3, [r2, #3]
 20040ca:	6c23      	ldr	r3, [r4, #64]	; 0x40
 20040cc:	3204      	adds	r2, #4
 20040ce:	f3c3 3304 	ubfx	r3, r3, #12, #5
 20040d2:	429d      	cmp	r5, r3
 20040d4:	d3e6      	bcc.n	20040a4 <uapi_flash_partition_config+0x10c>
 20040d6:	79f3      	ldrb	r3, [r6, #7]
 20040d8:	2238      	movs	r2, #56	; 0x38
 20040da:	f043 0380 	orr.w	r3, r3, #128	; 0x80
 20040de:	4631      	mov	r1, r6
 20040e0:	2006      	movs	r0, #6
 20040e2:	71f3      	strb	r3, [r6, #7]
 20040e4:	f035 fcce 	bl	2039a84 <uapi_factory_nv_write>
 20040e8:	4605      	mov	r5, r0
 20040ea:	e79e      	b.n	200402a <uapi_flash_partition_config+0x92>
 20040ec:	f200 ff1c 	bl	2204f28 <__stack_chk_fail>
 20040f0:	02000498 	.word	0x02000498
 20040f4:	0200c61c 	.word	0x0200c61c

020040f8 <uapi_flash_partition_refresh>:
 20040f8:	4603      	mov	r3, r0
 20040fa:	e92d 4ff0 	stmdb	sp!, {r4, r5, r6, r7, r8, r9, sl, fp, lr}
 20040fe:	2138      	movs	r1, #56	; 0x38
 2004100:	b089      	sub	sp, #36	; 0x24
 2004102:	20cc      	movs	r0, #204	; 0xcc
 2004104:	9307      	str	r3, [sp, #28]
 2004106:	f20b f949 	bl	220f39c <uapi_malloc>
 200410a:	213c      	movs	r1, #60	; 0x3c
 200410c:	4682      	mov	sl, r0
 200410e:	20cc      	movs	r0, #204	; 0xcc
 2004110:	f20b f944 	bl	220f39c <uapi_malloc>
 2004114:	4603      	mov	r3, r0
 2004116:	f44f 5180 	mov.w	r1, #4096	; 0x1000
 200411a:	20cc      	movs	r0, #204	; 0xcc
 200411c:	461c      	mov	r4, r3
 200411e:	9304      	str	r3, [sp, #16]
 2004120:	f20b f93c 	bl	220f39c <uapi_malloc>
 2004124:	4683      	mov	fp, r0
 2004126:	f1ba 0f00 	cmp.w	sl, #0
 200412a:	f000 80f2 	beq.w	2004312 <uapi_flash_partition_refresh+0x21a>
 200412e:	2c00      	cmp	r4, #0
 2004130:	f000 80ec 	beq.w	200430c <uapi_flash_partition_refresh+0x214>
 2004134:	2800      	cmp	r0, #0
 2004136:	f000 80e9 	beq.w	200430c <uapi_flash_partition_refresh+0x214>
 200413a:	2301      	movs	r3, #1
 200413c:	2238      	movs	r2, #56	; 0x38
 200413e:	4651      	mov	r1, sl
 2004140:	2006      	movs	r0, #6
 2004142:	f035 f9bd 	bl	20394c0 <nv_read_common>
 2004146:	9005      	str	r0, [sp, #20]
 2004148:	b1a0      	cbz	r0, 2004174 <uapi_flash_partition_refresh+0x7c>
 200414a:	4651      	mov	r1, sl
 200414c:	20cc      	movs	r0, #204	; 0xcc
 200414e:	f20b f92b 	bl	220f3a8 <uapi_free>
 2004152:	9b04      	ldr	r3, [sp, #16]
 2004154:	b11b      	cbz	r3, 200415e <uapi_flash_partition_refresh+0x66>
 2004156:	4619      	mov	r1, r3
 2004158:	20cc      	movs	r0, #204	; 0xcc
 200415a:	f20b f925 	bl	220f3a8 <uapi_free>
 200415e:	f1bb 0f00 	cmp.w	fp, #0
 2004162:	d003      	beq.n	200416c <uapi_flash_partition_refresh+0x74>
 2004164:	4659      	mov	r1, fp
 2004166:	20cc      	movs	r0, #204	; 0xcc
 2004168:	f20b f91e 	bl	220f3a8 <uapi_free>
 200416c:	9805      	ldr	r0, [sp, #20]
 200416e:	b009      	add	sp, #36	; 0x24
 2004170:	e8bd 8ff0 	ldmia.w	sp!, {r4, r5, r6, r7, r8, r9, sl, fp, pc}
 2004174:	2301      	movs	r3, #1
 2004176:	223c      	movs	r2, #60	; 0x3c
 2004178:	4621      	mov	r1, r4
 200417a:	2005      	movs	r0, #5
 200417c:	f035 f9a0 	bl	20394c0 <nv_read_common>
 2004180:	9005      	str	r0, [sp, #20]
 2004182:	2800      	cmp	r0, #0
 2004184:	d1e1      	bne.n	200414a <uapi_flash_partition_refresh+0x52>
 2004186:	f99a 3007 	ldrsb.w	r3, [sl, #7]
 200418a:	2b00      	cmp	r3, #0
 200418c:	dadd      	bge.n	200414a <uapi_flash_partition_refresh+0x52>
 200418e:	f8ba 3004 	ldrh.w	r3, [sl, #4]
 2004192:	f3c3 020b 	ubfx	r2, r3, #0, #12
 2004196:	2a00      	cmp	r2, #0
 2004198:	f040 80be 	bne.w	2004318 <uapi_flash_partition_refresh+0x220>
 200419c:	f04f 0801 	mov.w	r8, #1
 20041a0:	f8da 5004 	ldr.w	r5, [sl, #4]
 20041a4:	f415 3ff8 	tst.w	r5, #126976	; 0x1f000
 20041a8:	d077      	beq.n	200429a <uapi_flash_partition_refresh+0x1a2>
 20041aa:	2300      	movs	r3, #0
 20041ac:	46c1      	mov	r9, r8
 20041ae:	9303      	str	r3, [sp, #12]
 20041b0:	9b03      	ldr	r3, [sp, #12]
 20041b2:	3302      	adds	r3, #2
 20041b4:	9306      	str	r3, [sp, #24]
 20041b6:	eb0a 0383 	add.w	r3, sl, r3, lsl #2
 20041ba:	78df      	ldrb	r7, [r3, #3]
 20041bc:	06bb      	lsls	r3, r7, #26
 20041be:	d564      	bpl.n	200428a <uapi_flash_partition_refresh+0x192>
 20041c0:	9804      	ldr	r0, [sp, #16]
 20041c2:	4b75      	ldr	r3, [pc, #468]	; (2004398 <uapi_flash_partition_refresh+0x2a0>)
 20041c4:	9c03      	ldr	r4, [sp, #12]
 20041c6:	f007 071f 	and.w	r7, r7, #31
 20041ca:	eb03 0387 	add.w	r3, r3, r7, lsl #2
 20041ce:	eb00 0187 	add.w	r1, r0, r7, lsl #2
 20041d2:	889a      	ldrh	r2, [r3, #4]
 20041d4:	eb00 0084 	add.w	r0, r0, r4, lsl #2
 20041d8:	685e      	ldr	r6, [r3, #4]
 20041da:	888b      	ldrh	r3, [r1, #4]
 20041dc:	6849      	ldr	r1, [r1, #4]
 20041de:	f890 c007 	ldrb.w	ip, [r0, #7]
 20041e2:	f3c2 020b 	ubfx	r2, r2, #0, #12
 20041e6:	f3c3 030b 	ubfx	r3, r3, #0, #12
 20041ea:	f3c6 360b 	ubfx	r6, r6, #12, #12
 20041ee:	f3c1 310b 	ubfx	r1, r1, #12, #12
 20041f2:	1994      	adds	r4, r2, r6
 20041f4:	1858      	adds	r0, r3, r1
 20041f6:	ea5f 1cdc 	movs.w	ip, ip, lsr #7
 20041fa:	ea4f 3202 	mov.w	r2, r2, lsl #12
 20041fe:	ea4f 3404 	mov.w	r4, r4, lsl #12
 2004202:	ea4f 3303 	mov.w	r3, r3, lsl #12
 2004206:	ea4f 3000 	mov.w	r0, r0, lsl #12
 200420a:	d174      	bne.n	20042f6 <uapi_flash_partition_refresh+0x1fe>
 200420c:	429a      	cmp	r2, r3
 200420e:	d03c      	beq.n	200428a <uapi_flash_partition_refresh+0x192>
 2004210:	428e      	cmp	r6, r1
 2004212:	bf94      	ite	ls
 2004214:	0331      	lslls	r1, r6, #12
 2004216:	0309      	lslhi	r1, r1, #12
 2004218:	9101      	str	r1, [sp, #4]
 200421a:	9906      	ldr	r1, [sp, #24]
 200421c:	3702      	adds	r7, #2
 200421e:	eb0a 0181 	add.w	r1, sl, r1, lsl #2
 2004222:	f83a 5027 	ldrh.w	r5, [sl, r7, lsl #2]
 2004226:	78c9      	ldrb	r1, [r1, #3]
 2004228:	f3c5 050b 	ubfx	r5, r5, #0, #12
 200422c:	0989      	lsrs	r1, r1, #6
 200422e:	032d      	lsls	r5, r5, #12
 2004230:	2901      	cmp	r1, #1
 2004232:	462e      	mov	r6, r5
 2004234:	d062      	beq.n	20042fc <uapi_flash_partition_refresh+0x204>
 2004236:	429a      	cmp	r2, r3
 2004238:	d201      	bcs.n	200423e <uapi_flash_partition_refresh+0x146>
 200423a:	2902      	cmp	r1, #2
 200423c:	d05e      	beq.n	20042fc <uapi_flash_partition_refresh+0x204>
 200423e:	f44f 5180 	mov.w	r1, #4096	; 0x1000
 2004242:	9102      	str	r1, [sp, #8]
 2004244:	441d      	add	r5, r3
 2004246:	eba2 0803 	sub.w	r8, r2, r3
 200424a:	9b01      	ldr	r3, [sp, #4]
 200424c:	eb08 0005 	add.w	r0, r8, r5
 2004250:	429e      	cmp	r6, r3
 2004252:	f506 5680 	add.w	r6, r6, #4096	; 0x1000
 2004256:	d208      	bcs.n	200426a <uapi_flash_partition_refresh+0x172>
 2004258:	465a      	mov	r2, fp
 200425a:	f44f 5180 	mov.w	r1, #4096	; 0x1000
 200425e:	f7fe f861 	bl	2002324 <uapi_flash_read_in>
 2004262:	4604      	mov	r4, r0
 2004264:	b318      	cbz	r0, 20042ae <uapi_flash_partition_refresh+0x1b6>
 2004266:	b2e4      	uxtb	r4, r4
 2004268:	b9bc      	cbnz	r4, 200429a <uapi_flash_partition_refresh+0x1a2>
 200426a:	9b06      	ldr	r3, [sp, #24]
 200426c:	4651      	mov	r1, sl
 200426e:	eb0a 0383 	add.w	r3, sl, r3, lsl #2
 2004272:	78da      	ldrb	r2, [r3, #3]
 2004274:	2006      	movs	r0, #6
 2004276:	f36f 1245 	bfc	r2, #5, #1
 200427a:	70da      	strb	r2, [r3, #3]
 200427c:	464b      	mov	r3, r9
 200427e:	2238      	movs	r2, #56	; 0x38
 2004280:	f035 faa8 	bl	20397d4 <nv_write_common>
 2004284:	b948      	cbnz	r0, 200429a <uapi_flash_partition_refresh+0x1a2>
 2004286:	f8da 5004 	ldr.w	r5, [sl, #4]
 200428a:	9b03      	ldr	r3, [sp, #12]
 200428c:	3301      	adds	r3, #1
 200428e:	461a      	mov	r2, r3
 2004290:	9303      	str	r3, [sp, #12]
 2004292:	f3c5 3304 	ubfx	r3, r5, #12, #5
 2004296:	429a      	cmp	r2, r3
 2004298:	d38a      	bcc.n	20041b0 <uapi_flash_partition_refresh+0xb8>
 200429a:	2301      	movs	r3, #1
 200429c:	223c      	movs	r2, #60	; 0x3c
 200429e:	2004      	movs	r0, #4
 20042a0:	9904      	ldr	r1, [sp, #16]
 20042a2:	f035 fa97 	bl	20397d4 <nv_write_common>
 20042a6:	2800      	cmp	r0, #0
 20042a8:	d04c      	beq.n	2004344 <uapi_flash_partition_refresh+0x24c>
 20042aa:	9005      	str	r0, [sp, #20]
 20042ac:	e74d      	b.n	200414a <uapi_flash_partition_refresh+0x52>
 20042ae:	f44f 5180 	mov.w	r1, #4096	; 0x1000
 20042b2:	4628      	mov	r0, r5
 20042b4:	f7fd ffbc 	bl	2002230 <uapi_flash_erase_in>
 20042b8:	4684      	mov	ip, r0
 20042ba:	9b02      	ldr	r3, [sp, #8]
 20042bc:	f44f 5180 	mov.w	r1, #4096	; 0x1000
 20042c0:	4628      	mov	r0, r5
 20042c2:	465a      	mov	r2, fp
 20042c4:	441d      	add	r5, r3
 20042c6:	4623      	mov	r3, r4
 20042c8:	4664      	mov	r4, ip
 20042ca:	f7fd fffb 	bl	20022c4 <uapi_flash_write_in>
 20042ce:	4304      	orrs	r4, r0
 20042d0:	ea4f 3116 	mov.w	r1, r6, lsr #12
 20042d4:	d1c7      	bne.n	2004266 <uapi_flash_partition_refresh+0x16e>
 20042d6:	f83a 2027 	ldrh.w	r2, [sl, r7, lsl #2]
 20042da:	464b      	mov	r3, r9
 20042dc:	f361 020b 	bfi	r2, r1, #0, #12
 20042e0:	f82a 2027 	strh.w	r2, [sl, r7, lsl #2]
 20042e4:	4651      	mov	r1, sl
 20042e6:	2238      	movs	r2, #56	; 0x38
 20042e8:	2006      	movs	r0, #6
 20042ea:	f035 fa73 	bl	20397d4 <nv_write_common>
 20042ee:	2800      	cmp	r0, #0
 20042f0:	d0ab      	beq.n	200424a <uapi_flash_partition_refresh+0x152>
 20042f2:	b2c4      	uxtb	r4, r0
 20042f4:	e7b8      	b.n	2004268 <uapi_flash_partition_refresh+0x170>
 20042f6:	4284      	cmp	r4, r0
 20042f8:	d18a      	bne.n	2004210 <uapi_flash_partition_refresh+0x118>
 20042fa:	e7c6      	b.n	200428a <uapi_flash_partition_refresh+0x192>
 20042fc:	4927      	ldr	r1, [pc, #156]	; (200439c <uapi_flash_partition_refresh+0x2a4>)
 20042fe:	426d      	negs	r5, r5
 2004300:	f5a4 5280 	sub.w	r2, r4, #4096	; 0x1000
 2004304:	f5a0 5380 	sub.w	r3, r0, #4096	; 0x1000
 2004308:	9102      	str	r1, [sp, #8]
 200430a:	e79b      	b.n	2004244 <uapi_flash_partition_refresh+0x14c>
 200430c:	2310      	movs	r3, #16
 200430e:	9305      	str	r3, [sp, #20]
 2004310:	e71b      	b.n	200414a <uapi_flash_partition_refresh+0x52>
 2004312:	2310      	movs	r3, #16
 2004314:	9305      	str	r3, [sp, #20]
 2004316:	e71c      	b.n	2004152 <uapi_flash_partition_refresh+0x5a>
 2004318:	4b1f      	ldr	r3, [pc, #124]	; (2004398 <uapi_flash_partition_refresh+0x2a0>)
 200431a:	0310      	lsls	r0, r2, #12
 200431c:	8919      	ldrh	r1, [r3, #8]
 200431e:	2202      	movs	r2, #2
 2004320:	f3c1 010b 	ubfx	r1, r1, #0, #12
 2004324:	0309      	lsls	r1, r1, #12
 2004326:	f035 f8bf 	bl	20394a8 <nv_init_common>
 200432a:	2800      	cmp	r0, #0
 200432c:	d1bd      	bne.n	20042aa <uapi_flash_partition_refresh+0x1b2>
 200432e:	2302      	movs	r3, #2
 2004330:	2238      	movs	r2, #56	; 0x38
 2004332:	4651      	mov	r1, sl
 2004334:	2006      	movs	r0, #6
 2004336:	f035 f8c3 	bl	20394c0 <nv_read_common>
 200433a:	2800      	cmp	r0, #0
 200433c:	d1b5      	bne.n	20042aa <uapi_flash_partition_refresh+0x1b2>
 200433e:	f04f 0802 	mov.w	r8, #2
 2004342:	e72d      	b.n	20041a0 <uapi_flash_partition_refresh+0xa8>
 2004344:	f89a 3007 	ldrb.w	r3, [sl, #7]
 2004348:	2238      	movs	r2, #56	; 0x38
 200434a:	f360 13c7 	bfi	r3, r0, #7, #1
 200434e:	f88a 3007 	strb.w	r3, [sl, #7]
 2004352:	4651      	mov	r1, sl
 2004354:	2301      	movs	r3, #1
 2004356:	2006      	movs	r0, #6
 2004358:	f035 fa3c 	bl	20397d4 <nv_write_common>
 200435c:	2800      	cmp	r0, #0
 200435e:	d1a4      	bne.n	20042aa <uapi_flash_partition_refresh+0x1b2>
 2004360:	9b07      	ldr	r3, [sp, #28]
 2004362:	2b00      	cmp	r3, #0
 2004364:	f47f aef1 	bne.w	200414a <uapi_flash_partition_refresh+0x52>
 2004368:	4c0b      	ldr	r4, [pc, #44]	; (2004398 <uapi_flash_partition_refresh+0x2a0>)
 200436a:	2301      	movs	r3, #1
 200436c:	223c      	movs	r2, #60	; 0x3c
 200436e:	4621      	mov	r1, r4
 2004370:	2004      	movs	r0, #4
 2004372:	f035 f8a5 	bl	20394c0 <nv_read_common>
 2004376:	9005      	str	r0, [sp, #20]
 2004378:	2800      	cmp	r0, #0
 200437a:	f47f aee6 	bne.w	200414a <uapi_flash_partition_refresh+0x52>
 200437e:	89a3      	ldrh	r3, [r4, #12]
 2004380:	8b20      	ldrh	r0, [r4, #24]
 2004382:	f3c3 010b 	ubfx	r1, r3, #0, #12
 2004386:	f3c0 000b 	ubfx	r0, r0, #0, #12
 200438a:	0309      	lsls	r1, r1, #12
 200438c:	0300      	lsls	r0, r0, #12
 200438e:	f035 fbe9 	bl	2039b64 <uapi_nv_soft_reset>
 2004392:	9005      	str	r0, [sp, #20]
 2004394:	e6d9      	b.n	200414a <uapi_flash_partition_refresh+0x52>
 2004396:	bf00      	nop
 2004398:	0200c61c 	.word	0x0200c61c
 200439c:	fffff000 	.word	0xfffff000

020043a0 <osBusFaultHandler>:
 20043a0:	f01e 0f04 	tst.w	lr, #4
 20043a4:	bf0c      	ite	eq
 20043a6:	f3ef 8008 	mrseq	r0, MSP
 20043aa:	f3ef 8009 	mrsne	r0, PSP
 20043ae:	f3ef 8110 	mrs	r1, PRIMASK
 20043b2:	b402      	push	{r1}
 20043b4:	e92d 0ff0 	stmdb	sp!, {r4, r5, r6, r7, r8, r9, sl, fp}
 20043b8:	b500      	push	{lr}
 20043ba:	f000 ffff 	bl	20053bc <remap_busfault_handler>
 20043be:	2800      	cmp	r0, #0
 20043c0:	d107      	bne.n	20043d2 <ExcHandler>
 20043c2:	f85d eb04 	ldr.w	lr, [sp], #4
 20043c6:	e8bd 0ff0 	ldmia.w	sp!, {r4, r5, r6, r7, r8, r9, sl, fp}
 20043ca:	bc02      	pop	{r1}
 20043cc:	f381 8810 	msr	PRIMASK, r1
 20043d0:	4770      	bx	lr

020043d2 <ExcHandler>:
 20043d2:	f85d eb04 	ldr.w	lr, [sp], #4
 20043d6:	e8bd 0ff0 	ldmia.w	sp!, {r4, r5, r6, r7, r8, r9, sl, fp}
 20043da:	bc02      	pop	{r1}
 20043dc:	f381 8810 	msr	PRIMASK, r1
 20043e0:	2016      	movs	r0, #22
 20043e2:	f7fb be5f 	b.w	20000a4 <osCrashProc>
	...

020043e8 <uapi_get_hw_chip_ver>:
 20043e8:	4b04      	ldr	r3, [pc, #16]	; (20043fc <uapi_get_hw_chip_ver+0x14>)
 20043ea:	6a58      	ldr	r0, [r3, #36]	; 0x24
 20043ec:	f3c0 100b 	ubfx	r0, r0, #4, #12
 20043f0:	f5a0 7080 	sub.w	r0, r0, #256	; 0x100
 20043f4:	fab0 f080 	clz	r0, r0
 20043f8:	0940      	lsrs	r0, r0, #5
 20043fa:	4770      	bx	lr
 20043fc:	40030000 	.word	0x40030000

02004400 <uapi_get_hw_chip_type>:
 2004400:	4b03      	ldr	r3, [pc, #12]	; (2004410 <uapi_get_hw_chip_type+0x10>)
 2004402:	6a5b      	ldr	r3, [r3, #36]	; 0x24
 2004404:	f013 0f02 	tst.w	r3, #2
 2004408:	bf14      	ite	ne
 200440a:	2002      	movne	r0, #2
 200440c:	2001      	moveq	r0, #1
 200440e:	4770      	bx	lr
 2004410:	40030000 	.word	0x40030000

02004414 <serial_init>:
 2004414:	2200      	movs	r2, #0
 2004416:	b430      	push	{r4, r5}
 2004418:	4c23      	ldr	r4, [pc, #140]	; (20044a8 <serial_init+0x94>)
 200441a:	6082      	str	r2, [r0, #8]
 200441c:	6a62      	ldr	r2, [r4, #36]	; 0x24
 200441e:	4d23      	ldr	r5, [pc, #140]	; (20044ac <serial_init+0x98>)
 2004420:	f022 0208 	bic.w	r2, r2, #8
 2004424:	42a8      	cmp	r0, r5
 2004426:	6262      	str	r2, [r4, #36]	; 0x24
 2004428:	d006      	beq.n	2004438 <serial_init+0x24>
 200442a:	4b21      	ldr	r3, [pc, #132]	; (20044b0 <serial_init+0x9c>)
 200442c:	4298      	cmp	r0, r3
 200442e:	d105      	bne.n	200443c <serial_init+0x28>
 2004430:	2305      	movs	r3, #5
 2004432:	4d20      	ldr	r5, [pc, #128]	; (20044b4 <serial_init+0xa0>)
 2004434:	6043      	str	r3, [r0, #4]
 2004436:	e004      	b.n	2004442 <serial_init+0x2e>
 2004438:	2307      	movs	r3, #7
 200443a:	6083      	str	r3, [r0, #8]
 200443c:	2300      	movs	r3, #0
 200443e:	1d05      	adds	r5, r0, #4
 2004440:	6043      	str	r3, [r0, #4]
 2004442:	6903      	ldr	r3, [r0, #16]
 2004444:	f100 027c 	add.w	r2, r0, #124	; 0x7c
 2004448:	f043 0310 	orr.w	r3, r3, #16
 200444c:	6103      	str	r3, [r0, #16]
 200444e:	e003      	b.n	2004458 <serial_init+0x44>
 2004450:	6943      	ldr	r3, [r0, #20]
 2004452:	07dc      	lsls	r4, r3, #31
 2004454:	bf48      	it	mi
 2004456:	6803      	ldrmi	r3, [r0, #0]
 2004458:	6813      	ldr	r3, [r2, #0]
 200445a:	07db      	lsls	r3, r3, #31
 200445c:	d4f8      	bmi.n	2004450 <serial_init+0x3c>
 200445e:	4b16      	ldr	r3, [pc, #88]	; (20044b8 <serial_init+0xa4>)
 2004460:	0109      	lsls	r1, r1, #4
 2004462:	fbb3 f3f1 	udiv	r3, r3, r1
 2004466:	2480      	movs	r4, #128	; 0x80
 2004468:	0c19      	lsrs	r1, r3, #16
 200446a:	b29b      	uxth	r3, r3
 200446c:	60c4      	str	r4, [r0, #12]
 200446e:	6003      	str	r3, [r0, #0]
 2004470:	6029      	str	r1, [r5, #0]
 2004472:	e003      	b.n	200447c <serial_init+0x68>
 2004474:	6943      	ldr	r3, [r0, #20]
 2004476:	07dc      	lsls	r4, r3, #31
 2004478:	bf48      	it	mi
 200447a:	6803      	ldrmi	r3, [r0, #0]
 200447c:	6813      	ldr	r3, [r2, #0]
 200447e:	f013 0301 	ands.w	r3, r3, #1
 2004482:	d1f7      	bne.n	2004474 <serial_init+0x60>
 2004484:	60c3      	str	r3, [r0, #12]
 2004486:	e003      	b.n	2004490 <serial_init+0x7c>
 2004488:	6943      	ldr	r3, [r0, #20]
 200448a:	07d9      	lsls	r1, r3, #31
 200448c:	bf48      	it	mi
 200448e:	6803      	ldrmi	r3, [r0, #0]
 2004490:	6813      	ldr	r3, [r2, #0]
 2004492:	07db      	lsls	r3, r3, #31
 2004494:	d4f8      	bmi.n	2004488 <serial_init+0x74>
 2004496:	221b      	movs	r2, #27
 2004498:	6903      	ldr	r3, [r0, #16]
 200449a:	f023 0310 	bic.w	r3, r3, #16
 200449e:	6103      	str	r3, [r0, #16]
 20044a0:	60c2      	str	r2, [r0, #12]
 20044a2:	bc30      	pop	{r4, r5}
 20044a4:	4770      	bx	lr
 20044a6:	bf00      	nop
 20044a8:	4003b000 	.word	0x4003b000
 20044ac:	4003c000 	.word	0x4003c000
 20044b0:	4003d000 	.word	0x4003d000
 20044b4:	4003d004 	.word	0x4003d004
 20044b8:	08f0d180 	.word	0x08f0d180

020044bc <serial_putc>:
 20044bc:	4a02      	ldr	r2, [pc, #8]	; (20044c8 <serial_putc+0xc>)
 20044be:	6953      	ldr	r3, [r2, #20]
 20044c0:	069b      	lsls	r3, r3, #26
 20044c2:	d5fc      	bpl.n	20044be <serial_putc+0x2>
 20044c4:	6010      	str	r0, [r2, #0]
 20044c6:	4770      	bx	lr
 20044c8:	4003d000 	.word	0x4003d000

020044cc <serial_getc>:
 20044cc:	4a05      	ldr	r2, [pc, #20]	; (20044e4 <serial_getc+0x18>)
 20044ce:	6953      	ldr	r3, [r2, #20]
 20044d0:	07db      	lsls	r3, r3, #31
 20044d2:	d5fc      	bpl.n	20044ce <serial_getc+0x2>
 20044d4:	6810      	ldr	r0, [r2, #0]
 20044d6:	6953      	ldr	r3, [r2, #20]
 20044d8:	f013 0f1e 	tst.w	r3, #30
 20044dc:	bf18      	it	ne
 20044de:	f04f 30ff 	movne.w	r0, #4294967295	; 0xffffffff
 20044e2:	4770      	bx	lr
 20044e4:	4003d000 	.word	0x4003d000

020044e8 <uapi_uart_read>:
 20044e8:	2801      	cmp	r0, #1
 20044ea:	d804      	bhi.n	20044f6 <uapi_uart_read+0xe>
 20044ec:	4b03      	ldr	r3, [pc, #12]	; (20044fc <uapi_uart_read+0x14>)
 20044ee:	f853 0020 	ldr.w	r0, [r3, r0, lsl #2]
 20044f2:	f000 b823 	b.w	200453c <uart_read>
 20044f6:	f04f 30ff 	mov.w	r0, #4294967295	; 0xffffffff
 20044fa:	4770      	bx	lr
 20044fc:	02008d20 	.word	0x02008d20

02004500 <uapi_uart_write>:
 2004500:	2801      	cmp	r0, #1
 2004502:	d804      	bhi.n	200450e <uapi_uart_write+0xe>
 2004504:	4b03      	ldr	r3, [pc, #12]	; (2004514 <uapi_uart_write+0x14>)
 2004506:	f853 0020 	ldr.w	r0, [r3, r0, lsl #2]
 200450a:	f000 b84d 	b.w	20045a8 <uart_write>
 200450e:	f04f 30ff 	mov.w	r0, #4294967295	; 0xffffffff
 2004512:	4770      	bx	lr
 2004514:	02008d20 	.word	0x02008d20

02004518 <check_commit_to_sleep>:
 2004518:	b508      	push	{r3, lr}
 200451a:	4b07      	ldr	r3, [pc, #28]	; (2004538 <check_commit_to_sleep+0x20>)
 200451c:	f853 0020 	ldr.w	r0, [r3, r0, lsl #2]
 2004520:	f8d0 30b0 	ldr.w	r3, [r0, #176]	; 0xb0
 2004524:	2b01      	cmp	r3, #1
 2004526:	d001      	beq.n	200452c <check_commit_to_sleep+0x14>
 2004528:	2001      	movs	r0, #1
 200452a:	bd08      	pop	{r3, pc}
 200452c:	f000 fa24 	bl	2004978 <uart_rx_fifo_num>
 2004530:	fab0 f080 	clz	r0, r0
 2004534:	0940      	lsrs	r0, r0, #5
 2004536:	bd08      	pop	{r3, pc}
 2004538:	02008d20 	.word	0x02008d20

0200453c <uart_read>:
 200453c:	b370      	cbz	r0, 200459c <uart_read+0x60>
 200453e:	b5f8      	push	{r3, r4, r5, r6, r7, lr}
 2004540:	4604      	mov	r4, r0
 2004542:	f8d0 0094 	ldr.w	r0, [r0, #148]	; 0x94
 2004546:	b360      	cbz	r0, 20045a2 <uart_read+0x66>
 2004548:	460d      	mov	r5, r1
 200454a:	b1e9      	cbz	r1, 2004588 <uart_read+0x4c>
 200454c:	4616      	mov	r6, r2
 200454e:	b1da      	cbz	r2, 2004588 <uart_read+0x4c>
 2004550:	f8d4 30b0 	ldr.w	r3, [r4, #176]	; 0xb0
 2004554:	2b01      	cmp	r3, #1
 2004556:	d11c      	bne.n	2004592 <uart_read+0x56>
 2004558:	f104 07a0 	add.w	r7, r4, #160	; 0xa0
 200455c:	4632      	mov	r2, r6
 200455e:	4629      	mov	r1, r5
 2004560:	f000 f99e 	bl	20048a0 <uart_read_circ_buf>
 2004564:	6963      	ldr	r3, [r4, #20]
 2004566:	4403      	add	r3, r0
 2004568:	6163      	str	r3, [r4, #20]
 200456a:	b988      	cbnz	r0, 2004590 <uart_read+0x54>
 200456c:	f8b4 309c 	ldrh.w	r3, [r4, #156]	; 0x9c
 2004570:	07db      	lsls	r3, r3, #31
 2004572:	d50d      	bpl.n	2004590 <uart_read+0x54>
 2004574:	f04f 33ff 	mov.w	r3, #4294967295	; 0xffffffff
 2004578:	2203      	movs	r2, #3
 200457a:	2101      	movs	r1, #1
 200457c:	4638      	mov	r0, r7
 200457e:	f1fd fd55 	bl	220202c <LOS_EventRead>
 2004582:	f8d4 0094 	ldr.w	r0, [r4, #148]	; 0x94
 2004586:	e7e9      	b.n	200455c <uart_read+0x20>
 2004588:	2301      	movs	r3, #1
 200458a:	f04f 30ff 	mov.w	r0, #4294967295	; 0xffffffff
 200458e:	6023      	str	r3, [r4, #0]
 2004590:	bdf8      	pop	{r3, r4, r5, r6, r7, pc}
 2004592:	2307      	movs	r3, #7
 2004594:	6023      	str	r3, [r4, #0]
 2004596:	f04f 30ff 	mov.w	r0, #4294967295	; 0xffffffff
 200459a:	bdf8      	pop	{r3, r4, r5, r6, r7, pc}
 200459c:	f04f 30ff 	mov.w	r0, #4294967295	; 0xffffffff
 20045a0:	4770      	bx	lr
 20045a2:	f04f 30ff 	mov.w	r0, #4294967295	; 0xffffffff
 20045a6:	bdf8      	pop	{r3, r4, r5, r6, r7, pc}

020045a8 <uart_write>:
 20045a8:	2800      	cmp	r0, #0
 20045aa:	d040      	beq.n	200462e <uart_write+0x86>
 20045ac:	e92d 43f8 	stmdb	sp!, {r3, r4, r5, r6, r7, r8, r9, lr}
 20045b0:	4605      	mov	r5, r0
 20045b2:	f8d0 0098 	ldr.w	r0, [r0, #152]	; 0x98
 20045b6:	2800      	cmp	r0, #0
 20045b8:	d03c      	beq.n	2004634 <uart_write+0x8c>
 20045ba:	460f      	mov	r7, r1
 20045bc:	b359      	cbz	r1, 2004616 <uart_write+0x6e>
 20045be:	4616      	mov	r6, r2
 20045c0:	b34a      	cbz	r2, 2004616 <uart_write+0x6e>
 20045c2:	f8d5 30b0 	ldr.w	r3, [r5, #176]	; 0xb0
 20045c6:	2b01      	cmp	r3, #1
 20045c8:	d12b      	bne.n	2004622 <uart_write+0x7a>
 20045ca:	4690      	mov	r8, r2
 20045cc:	2400      	movs	r4, #0
 20045ce:	f105 09a0 	add.w	r9, r5, #160	; 0xa0
 20045d2:	e00e      	b.n	20045f2 <uart_write+0x4a>
 20045d4:	f8b5 309c 	ldrh.w	r3, [r5, #156]	; 0x9c
 20045d8:	079b      	lsls	r3, r3, #30
 20045da:	d514      	bpl.n	2004606 <uart_write+0x5e>
 20045dc:	f000 fa46 	bl	2004a6c <uart_tx_interrupt_enable>
 20045e0:	f04f 33ff 	mov.w	r3, #4294967295	; 0xffffffff
 20045e4:	2203      	movs	r2, #3
 20045e6:	2102      	movs	r1, #2
 20045e8:	4648      	mov	r0, r9
 20045ea:	f1fd fd1f 	bl	220202c <LOS_EventRead>
 20045ee:	f8d5 0098 	ldr.w	r0, [r5, #152]	; 0x98
 20045f2:	4642      	mov	r2, r8
 20045f4:	1939      	adds	r1, r7, r4
 20045f6:	f000 f9c5 	bl	2004984 <uart_write_circ_buf>
 20045fa:	4404      	add	r4, r0
 20045fc:	42a6      	cmp	r6, r4
 20045fe:	4628      	mov	r0, r5
 2004600:	eba6 0804 	sub.w	r8, r6, r4
 2004604:	dce6      	bgt.n	20045d4 <uart_write+0x2c>
 2004606:	f000 fa31 	bl	2004a6c <uart_tx_interrupt_enable>
 200460a:	4620      	mov	r0, r4
 200460c:	6a2b      	ldr	r3, [r5, #32]
 200460e:	4423      	add	r3, r4
 2004610:	622b      	str	r3, [r5, #32]
 2004612:	e8bd 83f8 	ldmia.w	sp!, {r3, r4, r5, r6, r7, r8, r9, pc}
 2004616:	2301      	movs	r3, #1
 2004618:	602b      	str	r3, [r5, #0]
 200461a:	f04f 30ff 	mov.w	r0, #4294967295	; 0xffffffff
 200461e:	e8bd 83f8 	ldmia.w	sp!, {r3, r4, r5, r6, r7, r8, r9, pc}
 2004622:	2307      	movs	r3, #7
 2004624:	602b      	str	r3, [r5, #0]
 2004626:	f04f 30ff 	mov.w	r0, #4294967295	; 0xffffffff
 200462a:	e8bd 83f8 	ldmia.w	sp!, {r3, r4, r5, r6, r7, r8, r9, pc}
 200462e:	f04f 30ff 	mov.w	r0, #4294967295	; 0xffffffff
 2004632:	4770      	bx	lr
 2004634:	f04f 30ff 	mov.w	r0, #4294967295	; 0xffffffff
 2004638:	e7eb      	b.n	2004612 <uart_write+0x6a>
 200463a:	bf00      	nop

0200463c <writelcr>:
 200463c:	f8d0 208c 	ldr.w	r2, [r0, #140]	; 0x8c
 2004640:	68d3      	ldr	r3, [r2, #12]
 2004642:	428b      	cmp	r3, r1
 2004644:	d02f      	beq.n	20046a6 <writelcr+0x6a>
 2004646:	e92d 41f0 	stmdb	sp!, {r4, r5, r6, r7, r8, lr}
 200464a:	4605      	mov	r5, r0
 200464c:	4688      	mov	r8, r1
 200464e:	2401      	movs	r4, #1
 2004650:	2757      	movs	r7, #87	; 0x57
 2004652:	4e15      	ldr	r6, [pc, #84]	; (20046a8 <writelcr+0x6c>)
 2004654:	6fd3      	ldr	r3, [r2, #124]	; 0x7c
 2004656:	07d8      	lsls	r0, r3, #31
 2004658:	d513      	bpl.n	2004682 <writelcr+0x46>
 200465a:	2001      	movs	r0, #1
 200465c:	f20b f836 	bl	220f6cc <uapi_udelay>
 2004660:	4623      	mov	r3, r4
 2004662:	42b3      	cmp	r3, r6
 2004664:	f104 0401 	add.w	r4, r4, #1
 2004668:	d817      	bhi.n	200469a <writelcr+0x5e>
 200466a:	f8d5 208c 	ldr.w	r2, [r5, #140]	; 0x8c
 200466e:	2311      	movs	r3, #17
 2004670:	68d1      	ldr	r1, [r2, #12]
 2004672:	0609      	lsls	r1, r1, #24
 2004674:	d413      	bmi.n	200469e <writelcr+0x62>
 2004676:	3b01      	subs	r3, #1
 2004678:	6811      	ldr	r1, [r2, #0]
 200467a:	d1fc      	bne.n	2004676 <writelcr+0x3a>
 200467c:	6fd3      	ldr	r3, [r2, #124]	; 0x7c
 200467e:	07d8      	lsls	r0, r3, #31
 2004680:	d4eb      	bmi.n	200465a <writelcr+0x1e>
 2004682:	f8c2 800c 	str.w	r8, [r2, #12]
 2004686:	f8d5 208c 	ldr.w	r2, [r5, #140]	; 0x8c
 200468a:	4621      	mov	r1, r4
 200468c:	68d3      	ldr	r3, [r2, #12]
 200468e:	4598      	cmp	r8, r3
 2004690:	d003      	beq.n	200469a <writelcr+0x5e>
 2004692:	42b1      	cmp	r1, r6
 2004694:	f104 0401 	add.w	r4, r4, #1
 2004698:	d9dc      	bls.n	2004654 <writelcr+0x18>
 200469a:	e8bd 81f0 	ldmia.w	sp!, {r4, r5, r6, r7, r8, pc}
 200469e:	6097      	str	r7, [r2, #8]
 20046a0:	f8d5 208c 	ldr.w	r2, [r5, #140]	; 0x8c
 20046a4:	e7d6      	b.n	2004654 <writelcr+0x18>
 20046a6:	4770      	bx	lr
 20046a8:	000f423f 	.word	0x000f423f

020046ac <uart_drv_start_tx>:
 20046ac:	2a10      	cmp	r2, #16
 20046ae:	d826      	bhi.n	20046fe <uart_drv_start_tx+0x52>
 20046b0:	4684      	mov	ip, r0
 20046b2:	b1f2      	cbz	r2, 20046f2 <uart_drv_start_tx+0x46>
 20046b4:	3901      	subs	r1, #1
 20046b6:	b510      	push	{r4, lr}
 20046b8:	eb01 0e02 	add.w	lr, r1, r2
 20046bc:	f811 0f01 	ldrb.w	r0, [r1, #1]!
 20046c0:	f8dc 308c 	ldr.w	r3, [ip, #140]	; 0x8c
 20046c4:	6018      	str	r0, [r3, #0]
 20046c6:	f8dc 3080 	ldr.w	r3, [ip, #128]	; 0x80
 20046ca:	1c58      	adds	r0, r3, #1
 20046cc:	2b1f      	cmp	r3, #31
 20046ce:	f000 001f 	and.w	r0, r0, #31
 20046d2:	d803      	bhi.n	20046dc <uart_drv_start_tx+0x30>
 20046d4:	780c      	ldrb	r4, [r1, #0]
 20046d6:	4463      	add	r3, ip
 20046d8:	f883 4060 	strb.w	r4, [r3, #96]	; 0x60
 20046dc:	458e      	cmp	lr, r1
 20046de:	f8cc 0080 	str.w	r0, [ip, #128]	; 0x80
 20046e2:	d1eb      	bne.n	20046bc <uart_drv_start_tx+0x10>
 20046e4:	f8dc 301c 	ldr.w	r3, [ip, #28]
 20046e8:	4610      	mov	r0, r2
 20046ea:	441a      	add	r2, r3
 20046ec:	f8cc 201c 	str.w	r2, [ip, #28]
 20046f0:	bd10      	pop	{r4, pc}
 20046f2:	69c3      	ldr	r3, [r0, #28]
 20046f4:	4610      	mov	r0, r2
 20046f6:	441a      	add	r2, r3
 20046f8:	f8cc 201c 	str.w	r2, [ip, #28]
 20046fc:	4770      	bx	lr
 20046fe:	f04f 30ff 	mov.w	r0, #4294967295	; 0xffffffff
 2004702:	4770      	bx	lr

02004704 <uart_drv_irq>:
 2004704:	b5f0      	push	{r4, r5, r6, r7, lr}
 2004706:	2100      	movs	r1, #0
 2004708:	4604      	mov	r4, r0
 200470a:	b093      	sub	sp, #76	; 0x4c
 200470c:	4b63      	ldr	r3, [pc, #396]	; (200489c <uart_drv_irq+0x198>)
 200470e:	223c      	movs	r2, #60	; 0x3c
 2004710:	a802      	add	r0, sp, #8
 2004712:	681b      	ldr	r3, [r3, #0]
 2004714:	9311      	str	r3, [sp, #68]	; 0x44
 2004716:	f04f 0300 	mov.w	r3, #0
 200471a:	9101      	str	r1, [sp, #4]
 200471c:	f203 f89a 	bl	2207854 <memset>
 2004720:	b17c      	cbz	r4, 2004742 <uart_drv_irq+0x3e>
 2004722:	f8d4 0094 	ldr.w	r0, [r4, #148]	; 0x94
 2004726:	b160      	cbz	r0, 2004742 <uart_drv_irq+0x3e>
 2004728:	f8d4 708c 	ldr.w	r7, [r4, #140]	; 0x8c
 200472c:	68bb      	ldr	r3, [r7, #8]
 200472e:	f003 060f 	and.w	r6, r3, #15
 2004732:	f003 0307 	and.w	r3, r3, #7
 2004736:	2b04      	cmp	r3, #4
 2004738:	d00d      	beq.n	2004756 <uart_drv_irq+0x52>
 200473a:	2e02      	cmp	r6, #2
 200473c:	d06a      	beq.n	2004814 <uart_drv_irq+0x110>
 200473e:	2e0e      	cmp	r6, #14
 2004740:	d05d      	beq.n	20047fe <uart_drv_irq+0xfa>
 2004742:	4b56      	ldr	r3, [pc, #344]	; (200489c <uart_drv_irq+0x198>)
 2004744:	681a      	ldr	r2, [r3, #0]
 2004746:	9b11      	ldr	r3, [sp, #68]	; 0x44
 2004748:	405a      	eors	r2, r3
 200474a:	f04f 0300 	mov.w	r3, #0
 200474e:	f040 80a3 	bne.w	2004898 <uart_drv_irq+0x194>
 2004752:	b013      	add	sp, #76	; 0x4c
 2004754:	bdf0      	pop	{r4, r5, r6, r7, pc}
 2004756:	697b      	ldr	r3, [r7, #20]
 2004758:	079a      	lsls	r2, r3, #30
 200475a:	d502      	bpl.n	2004762 <uart_drv_irq+0x5e>
 200475c:	6a62      	ldr	r2, [r4, #36]	; 0x24
 200475e:	3201      	adds	r2, #1
 2004760:	6262      	str	r2, [r4, #36]	; 0x24
 2004762:	075d      	lsls	r5, r3, #29
 2004764:	d502      	bpl.n	200476c <uart_drv_irq+0x68>
 2004766:	6aa2      	ldr	r2, [r4, #40]	; 0x28
 2004768:	3201      	adds	r2, #1
 200476a:	62a2      	str	r2, [r4, #40]	; 0x28
 200476c:	0719      	lsls	r1, r3, #28
 200476e:	d502      	bpl.n	2004776 <uart_drv_irq+0x72>
 2004770:	6ae2      	ldr	r2, [r4, #44]	; 0x2c
 2004772:	3201      	adds	r2, #1
 2004774:	62e2      	str	r2, [r4, #44]	; 0x2c
 2004776:	06da      	lsls	r2, r3, #27
 2004778:	d448      	bmi.n	200480c <uart_drv_irq+0x108>
 200477a:	2500      	movs	r5, #0
 200477c:	f107 0c7c 	add.w	ip, r7, #124	; 0x7c
 2004780:	a901      	add	r1, sp, #4
 2004782:	f8dc 3000 	ldr.w	r3, [ip]
 2004786:	071b      	lsls	r3, r3, #28
 2004788:	d41d      	bmi.n	20047c6 <uart_drv_irq+0xc2>
 200478a:	b375      	cbz	r5, 20047ea <uart_drv_irq+0xe6>
 200478c:	f8d4 30b4 	ldr.w	r3, [r4, #180]	; 0xb4
 2004790:	a901      	add	r1, sp, #4
 2004792:	462a      	mov	r2, r5
 2004794:	4798      	blx	r3
 2004796:	f8b4 309c 	ldrh.w	r3, [r4, #156]	; 0x9c
 200479a:	4607      	mov	r7, r0
 200479c:	07d9      	lsls	r1, r3, #31
 200479e:	d462      	bmi.n	2004866 <uart_drv_irq+0x162>
 20047a0:	6863      	ldr	r3, [r4, #4]
 20047a2:	42af      	cmp	r7, r5
 20047a4:	f103 0301 	add.w	r3, r3, #1
 20047a8:	6063      	str	r3, [r4, #4]
 20047aa:	68a3      	ldr	r3, [r4, #8]
 20047ac:	442b      	add	r3, r5
 20047ae:	60a3      	str	r3, [r4, #8]
 20047b0:	68e3      	ldr	r3, [r4, #12]
 20047b2:	443b      	add	r3, r7
 20047b4:	60e3      	str	r3, [r4, #12]
 20047b6:	d2c0      	bcs.n	200473a <uart_drv_irq+0x36>
 20047b8:	6923      	ldr	r3, [r4, #16]
 20047ba:	2e02      	cmp	r6, #2
 20047bc:	f103 0301 	add.w	r3, r3, #1
 20047c0:	6123      	str	r3, [r4, #16]
 20047c2:	d1bc      	bne.n	200473e <uart_drv_irq+0x3a>
 20047c4:	e026      	b.n	2004814 <uart_drv_irq+0x110>
 20047c6:	6de3      	ldr	r3, [r4, #92]	; 0x5c
 20047c8:	683a      	ldr	r2, [r7, #0]
 20047ca:	2b1f      	cmp	r3, #31
 20047cc:	f801 2b01 	strb.w	r2, [r1], #1
 20047d0:	d803      	bhi.n	20047da <uart_drv_irq+0xd6>
 20047d2:	eb04 0e03 	add.w	lr, r4, r3
 20047d6:	f88e 203c 	strb.w	r2, [lr, #60]	; 0x3c
 20047da:	3301      	adds	r3, #1
 20047dc:	3501      	adds	r5, #1
 20047de:	f003 031f 	and.w	r3, r3, #31
 20047e2:	2d40      	cmp	r5, #64	; 0x40
 20047e4:	65e3      	str	r3, [r4, #92]	; 0x5c
 20047e6:	d1cc      	bne.n	2004782 <uart_drv_irq+0x7e>
 20047e8:	e7d0      	b.n	200478c <uart_drv_irq+0x88>
 20047ea:	6ba2      	ldr	r2, [r4, #56]	; 0x38
 20047ec:	6863      	ldr	r3, [r4, #4]
 20047ee:	3201      	adds	r2, #1
 20047f0:	3301      	adds	r3, #1
 20047f2:	2e02      	cmp	r6, #2
 20047f4:	6839      	ldr	r1, [r7, #0]
 20047f6:	63a2      	str	r2, [r4, #56]	; 0x38
 20047f8:	6063      	str	r3, [r4, #4]
 20047fa:	d1a0      	bne.n	200473e <uart_drv_irq+0x3a>
 20047fc:	e00a      	b.n	2004814 <uart_drv_irq+0x110>
 20047fe:	f8d4 208c 	ldr.w	r2, [r4, #140]	; 0x8c
 2004802:	6853      	ldr	r3, [r2, #4]
 2004804:	f423 7380 	bic.w	r3, r3, #256	; 0x100
 2004808:	6053      	str	r3, [r2, #4]
 200480a:	e79a      	b.n	2004742 <uart_drv_irq+0x3e>
 200480c:	6b23      	ldr	r3, [r4, #48]	; 0x30
 200480e:	3301      	adds	r3, #1
 2004810:	6323      	str	r3, [r4, #48]	; 0x30
 2004812:	e7b2      	b.n	200477a <uart_drv_irq+0x76>
 2004814:	f8d4 0098 	ldr.w	r0, [r4, #152]	; 0x98
 2004818:	2800      	cmp	r0, #0
 200481a:	d092      	beq.n	2004742 <uart_drv_irq+0x3e>
 200481c:	f8d4 30bc 	ldr.w	r3, [r4, #188]	; 0xbc
 2004820:	2b00      	cmp	r3, #0
 2004822:	d08e      	beq.n	2004742 <uart_drv_irq+0x3e>
 2004824:	6883      	ldr	r3, [r0, #8]
 2004826:	07da      	lsls	r2, r3, #31
 2004828:	d403      	bmi.n	2004832 <uart_drv_irq+0x12e>
 200482a:	e9d0 2300 	ldrd	r2, r3, [r0]
 200482e:	429a      	cmp	r2, r3
 2004830:	d01f      	beq.n	2004872 <uart_drv_irq+0x16e>
 2004832:	f8d4 308c 	ldr.w	r3, [r4, #140]	; 0x8c
 2004836:	a901      	add	r1, sp, #4
 2004838:	f8d3 2080 	ldr.w	r2, [r3, #128]	; 0x80
 200483c:	f8d4 30b8 	ldr.w	r3, [r4, #184]	; 0xb8
 2004840:	f1c2 0210 	rsb	r2, r2, #16
 2004844:	4798      	blx	r3
 2004846:	f8d4 30bc 	ldr.w	r3, [r4, #188]	; 0xbc
 200484a:	4602      	mov	r2, r0
 200484c:	689b      	ldr	r3, [r3, #8]
 200484e:	b113      	cbz	r3, 2004856 <uart_drv_irq+0x152>
 2004850:	4620      	mov	r0, r4
 2004852:	a901      	add	r1, sp, #4
 2004854:	4798      	blx	r3
 2004856:	f8b4 309c 	ldrh.w	r3, [r4, #156]	; 0x9c
 200485a:	079b      	lsls	r3, r3, #30
 200485c:	d416      	bmi.n	200488c <uart_drv_irq+0x188>
 200485e:	69a3      	ldr	r3, [r4, #24]
 2004860:	3301      	adds	r3, #1
 2004862:	61a3      	str	r3, [r4, #24]
 2004864:	e76d      	b.n	2004742 <uart_drv_irq+0x3e>
 2004866:	2101      	movs	r1, #1
 2004868:	f104 00a0 	add.w	r0, r4, #160	; 0xa0
 200486c:	f1fd fc68 	bl	2202140 <LOS_EventWrite>
 2004870:	e796      	b.n	20047a0 <uart_drv_irq+0x9c>
 2004872:	f8d4 208c 	ldr.w	r2, [r4, #140]	; 0x8c
 2004876:	6853      	ldr	r3, [r2, #4]
 2004878:	f023 0302 	bic.w	r3, r3, #2
 200487c:	6053      	str	r3, [r2, #4]
 200487e:	f8d4 208c 	ldr.w	r2, [r4, #140]	; 0x8c
 2004882:	6853      	ldr	r3, [r2, #4]
 2004884:	f443 7380 	orr.w	r3, r3, #256	; 0x100
 2004888:	6053      	str	r3, [r2, #4]
 200488a:	e7e8      	b.n	200485e <uart_drv_irq+0x15a>
 200488c:	2102      	movs	r1, #2
 200488e:	f104 00a0 	add.w	r0, r4, #160	; 0xa0
 2004892:	f1fd fc55 	bl	2202140 <LOS_EventWrite>
 2004896:	e7e2      	b.n	200485e <uart_drv_irq+0x15a>
 2004898:	f200 fb46 	bl	2204f28 <__stack_chk_fail>
 200489c:	02000498 	.word	0x02000498

020048a0 <uart_read_circ_buf>:
 20048a0:	2800      	cmp	r0, #0
 20048a2:	d066      	beq.n	2004972 <uart_read_circ_buf+0xd2>
 20048a4:	e92d 47f0 	stmdb	sp!, {r4, r5, r6, r7, r8, r9, sl, lr}
 20048a8:	4604      	mov	r4, r0
 20048aa:	460f      	mov	r7, r1
 20048ac:	4615      	mov	r5, r2
 20048ae:	f20a fcbd 	bl	220f22c <uapi_int_lock>
 20048b2:	e9d4 6901 	ldrd	r6, r9, [r4, #4]
 20048b6:	f8d4 a000 	ldr.w	sl, [r4]
 20048ba:	f20a fcb9 	bl	220f230 <uapi_int_restore>
 20048be:	f019 0f01 	tst.w	r9, #1
 20048c2:	f8d4 800c 	ldr.w	r8, [r4, #12]
 20048c6:	d114      	bne.n	20048f2 <uart_read_circ_buf+0x52>
 20048c8:	eba6 010a 	sub.w	r1, r6, sl
 20048cc:	428d      	cmp	r5, r1
 20048ce:	bf28      	it	cs
 20048d0:	460d      	movcs	r5, r1
 20048d2:	b145      	cbz	r5, 20048e6 <uart_read_circ_buf+0x46>
 20048d4:	4629      	mov	r1, r5
 20048d6:	4638      	mov	r0, r7
 20048d8:	462b      	mov	r3, r5
 20048da:	eb08 020a 	add.w	r2, r8, sl
 20048de:	f203 fb9d 	bl	220801c <memcpy_s>
 20048e2:	2800      	cmp	r0, #0
 20048e4:	d138      	bne.n	2004958 <uart_read_circ_buf+0xb8>
 20048e6:	6823      	ldr	r3, [r4, #0]
 20048e8:	4628      	mov	r0, r5
 20048ea:	441d      	add	r5, r3
 20048ec:	6025      	str	r5, [r4, #0]
 20048ee:	e8bd 87f0 	ldmia.w	sp!, {r4, r5, r6, r7, r8, r9, sl, pc}
 20048f2:	6923      	ldr	r3, [r4, #16]
 20048f4:	eba3 090a 	sub.w	r9, r3, sl
 20048f8:	45a9      	cmp	r9, r5
 20048fa:	d906      	bls.n	200490a <uart_read_circ_buf+0x6a>
 20048fc:	bb1d      	cbnz	r5, 2004946 <uart_read_circ_buf+0xa6>
 20048fe:	6823      	ldr	r3, [r4, #0]
 2004900:	4628      	mov	r0, r5
 2004902:	442b      	add	r3, r5
 2004904:	6023      	str	r3, [r4, #0]
 2004906:	e8bd 87f0 	ldmia.w	sp!, {r4, r5, r6, r7, r8, r9, sl, pc}
 200490a:	4455      	add	r5, sl
 200490c:	1aed      	subs	r5, r5, r3
 200490e:	f1b9 0f00 	cmp.w	r9, #0
 2004912:	d124      	bne.n	200495e <uart_read_circ_buf+0xbe>
 2004914:	42b5      	cmp	r5, r6
 2004916:	bf28      	it	cs
 2004918:	4635      	movcs	r5, r6
 200491a:	b13d      	cbz	r5, 200492c <uart_read_circ_buf+0x8c>
 200491c:	4642      	mov	r2, r8
 200491e:	462b      	mov	r3, r5
 2004920:	4629      	mov	r1, r5
 2004922:	eb07 0009 	add.w	r0, r7, r9
 2004926:	f203 fb79 	bl	220801c <memcpy_s>
 200492a:	b9a8      	cbnz	r0, 2004958 <uart_read_circ_buf+0xb8>
 200492c:	f20a fc7e 	bl	220f22c <uapi_int_lock>
 2004930:	68a3      	ldr	r3, [r4, #8]
 2004932:	6025      	str	r5, [r4, #0]
 2004934:	f023 0301 	bic.w	r3, r3, #1
 2004938:	60a3      	str	r3, [r4, #8]
 200493a:	f20a fc79 	bl	220f230 <uapi_int_restore>
 200493e:	eb09 0005 	add.w	r0, r9, r5
 2004942:	e8bd 87f0 	ldmia.w	sp!, {r4, r5, r6, r7, r8, r9, sl, pc}
 2004946:	4629      	mov	r1, r5
 2004948:	4638      	mov	r0, r7
 200494a:	462b      	mov	r3, r5
 200494c:	eb08 020a 	add.w	r2, r8, sl
 2004950:	f203 fb64 	bl	220801c <memcpy_s>
 2004954:	2800      	cmp	r0, #0
 2004956:	d0d2      	beq.n	20048fe <uart_read_circ_buf+0x5e>
 2004958:	f06f 000d 	mvn.w	r0, #13
 200495c:	e7c7      	b.n	20048ee <uart_read_circ_buf+0x4e>
 200495e:	464b      	mov	r3, r9
 2004960:	4649      	mov	r1, r9
 2004962:	4638      	mov	r0, r7
 2004964:	eb08 020a 	add.w	r2, r8, sl
 2004968:	f203 fb58 	bl	220801c <memcpy_s>
 200496c:	2800      	cmp	r0, #0
 200496e:	d0d1      	beq.n	2004914 <uart_read_circ_buf+0x74>
 2004970:	e7f2      	b.n	2004958 <uart_read_circ_buf+0xb8>
 2004972:	f06f 000d 	mvn.w	r0, #13
 2004976:	4770      	bx	lr

02004978 <uart_rx_fifo_num>:
 2004978:	f8d0 308c 	ldr.w	r3, [r0, #140]	; 0x8c
 200497c:	f8d3 0084 	ldr.w	r0, [r3, #132]	; 0x84
 2004980:	b2c0      	uxtb	r0, r0
 2004982:	4770      	bx	lr

02004984 <uart_write_circ_buf>:
 2004984:	2800      	cmp	r0, #0
 2004986:	d066      	beq.n	2004a56 <uart_write_circ_buf+0xd2>
 2004988:	e92d 47f0 	stmdb	sp!, {r4, r5, r6, r7, r8, r9, sl, lr}
 200498c:	4604      	mov	r4, r0
 200498e:	460e      	mov	r6, r1
 2004990:	4615      	mov	r5, r2
 2004992:	f20a fc4b 	bl	220f22c <uapi_int_lock>
 2004996:	e9d4 a801 	ldrd	sl, r8, [r4, #4]
 200499a:	f8d4 9000 	ldr.w	r9, [r4]
 200499e:	f20a fc47 	bl	220f230 <uapi_int_restore>
 20049a2:	f018 0f01 	tst.w	r8, #1
 20049a6:	68e7      	ldr	r7, [r4, #12]
 20049a8:	d014      	beq.n	20049d4 <uart_write_circ_buf+0x50>
 20049aa:	eba9 030a 	sub.w	r3, r9, sl
 20049ae:	429d      	cmp	r5, r3
 20049b0:	bf28      	it	cs
 20049b2:	461d      	movcs	r5, r3
 20049b4:	b145      	cbz	r5, 20049c8 <uart_write_circ_buf+0x44>
 20049b6:	4632      	mov	r2, r6
 20049b8:	462b      	mov	r3, r5
 20049ba:	4629      	mov	r1, r5
 20049bc:	eb07 000a 	add.w	r0, r7, sl
 20049c0:	f203 fb2c 	bl	220801c <memcpy_s>
 20049c4:	2800      	cmp	r0, #0
 20049c6:	d139      	bne.n	2004a3c <uart_write_circ_buf+0xb8>
 20049c8:	6862      	ldr	r2, [r4, #4]
 20049ca:	4628      	mov	r0, r5
 20049cc:	4415      	add	r5, r2
 20049ce:	6065      	str	r5, [r4, #4]
 20049d0:	e8bd 87f0 	ldmia.w	sp!, {r4, r5, r6, r7, r8, r9, sl, pc}
 20049d4:	6920      	ldr	r0, [r4, #16]
 20049d6:	eba0 080a 	sub.w	r8, r0, sl
 20049da:	45a8      	cmp	r8, r5
 20049dc:	d906      	bls.n	20049ec <uart_write_circ_buf+0x68>
 20049de:	bb25      	cbnz	r5, 2004a2a <uart_write_circ_buf+0xa6>
 20049e0:	6863      	ldr	r3, [r4, #4]
 20049e2:	4628      	mov	r0, r5
 20049e4:	442b      	add	r3, r5
 20049e6:	6063      	str	r3, [r4, #4]
 20049e8:	e8bd 87f0 	ldmia.w	sp!, {r4, r5, r6, r7, r8, r9, sl, pc}
 20049ec:	eb0a 0305 	add.w	r3, sl, r5
 20049f0:	1a1d      	subs	r5, r3, r0
 20049f2:	f1b8 0f00 	cmp.w	r8, #0
 20049f6:	d124      	bne.n	2004a42 <uart_write_circ_buf+0xbe>
 20049f8:	454d      	cmp	r5, r9
 20049fa:	bf28      	it	cs
 20049fc:	464d      	movcs	r5, r9
 20049fe:	b13d      	cbz	r5, 2004a10 <uart_write_circ_buf+0x8c>
 2004a00:	4638      	mov	r0, r7
 2004a02:	462b      	mov	r3, r5
 2004a04:	4629      	mov	r1, r5
 2004a06:	eb06 0208 	add.w	r2, r6, r8
 2004a0a:	f203 fb07 	bl	220801c <memcpy_s>
 2004a0e:	b9a8      	cbnz	r0, 2004a3c <uart_write_circ_buf+0xb8>
 2004a10:	f20a fc0c 	bl	220f22c <uapi_int_lock>
 2004a14:	68a3      	ldr	r3, [r4, #8]
 2004a16:	6065      	str	r5, [r4, #4]
 2004a18:	f043 0301 	orr.w	r3, r3, #1
 2004a1c:	60a3      	str	r3, [r4, #8]
 2004a1e:	f20a fc07 	bl	220f230 <uapi_int_restore>
 2004a22:	eb08 0005 	add.w	r0, r8, r5
 2004a26:	e8bd 87f0 	ldmia.w	sp!, {r4, r5, r6, r7, r8, r9, sl, pc}
 2004a2a:	4632      	mov	r2, r6
 2004a2c:	462b      	mov	r3, r5
 2004a2e:	4629      	mov	r1, r5
 2004a30:	eb07 000a 	add.w	r0, r7, sl
 2004a34:	f203 faf2 	bl	220801c <memcpy_s>
 2004a38:	2800      	cmp	r0, #0
 2004a3a:	d0d1      	beq.n	20049e0 <uart_write_circ_buf+0x5c>
 2004a3c:	f06f 000d 	mvn.w	r0, #13
 2004a40:	e7c6      	b.n	20049d0 <uart_write_circ_buf+0x4c>
 2004a42:	4643      	mov	r3, r8
 2004a44:	4632      	mov	r2, r6
 2004a46:	4641      	mov	r1, r8
 2004a48:	eb07 000a 	add.w	r0, r7, sl
 2004a4c:	f203 fae6 	bl	220801c <memcpy_s>
 2004a50:	2800      	cmp	r0, #0
 2004a52:	d0d1      	beq.n	20049f8 <uart_write_circ_buf+0x74>
 2004a54:	e7f2      	b.n	2004a3c <uart_write_circ_buf+0xb8>
 2004a56:	f06f 000d 	mvn.w	r0, #13
 2004a5a:	4770      	bx	lr

02004a5c <uart_tx_interrupt_disable>:
 2004a5c:	f8d0 208c 	ldr.w	r2, [r0, #140]	; 0x8c
 2004a60:	6853      	ldr	r3, [r2, #4]
 2004a62:	f023 0302 	bic.w	r3, r3, #2
 2004a66:	6053      	str	r3, [r2, #4]
 2004a68:	4770      	bx	lr
 2004a6a:	bf00      	nop

02004a6c <uart_tx_interrupt_enable>:
 2004a6c:	f8d0 208c 	ldr.w	r2, [r0, #140]	; 0x8c
 2004a70:	6853      	ldr	r3, [r2, #4]
 2004a72:	f043 0302 	orr.w	r3, r3, #2
 2004a76:	b29b      	uxth	r3, r3
 2004a78:	6053      	str	r3, [r2, #4]
 2004a7a:	4770      	bx	lr

02004a7c <uart_rx_interrupt_disable>:
 2004a7c:	f8d0 208c 	ldr.w	r2, [r0, #140]	; 0x8c
 2004a80:	6853      	ldr	r3, [r2, #4]
 2004a82:	f023 0301 	bic.w	r3, r3, #1
 2004a86:	6053      	str	r3, [r2, #4]
 2004a88:	4770      	bx	lr
 2004a8a:	bf00      	nop

02004a8c <uart_tf_interrupt_disable>:
 2004a8c:	f8d0 208c 	ldr.w	r2, [r0, #140]	; 0x8c
 2004a90:	6853      	ldr	r3, [r2, #4]
 2004a92:	f423 7380 	bic.w	r3, r3, #256	; 0x100
 2004a96:	6053      	str	r3, [r2, #4]
 2004a98:	4770      	bx	lr
 2004a9a:	bf00      	nop

02004a9c <uapi_load_dev_type>:
 2004a9c:	b508      	push	{r3, lr}
 2004a9e:	f000 fd5f 	bl	2005560 <uapi_get_product_type>
 2004aa2:	1e43      	subs	r3, r0, #1
 2004aa4:	2b3b      	cmp	r3, #59	; 0x3b
 2004aa6:	d90b      	bls.n	2004ac0 <uapi_load_dev_type+0x24>
 2004aa8:	f641 739a 	movw	r3, #8090	; 0x1f9a
 2004aac:	f1a0 0265 	sub.w	r2, r0, #101	; 0x65
 2004ab0:	429a      	cmp	r2, r3
 2004ab2:	d907      	bls.n	2004ac4 <uapi_load_dev_type+0x28>
 2004ab4:	383d      	subs	r0, #61	; 0x3d
 2004ab6:	2827      	cmp	r0, #39	; 0x27
 2004ab8:	bf8c      	ite	hi
 2004aba:	2000      	movhi	r0, #0
 2004abc:	2001      	movls	r0, #1
 2004abe:	bd08      	pop	{r3, pc}
 2004ac0:	2002      	movs	r0, #2
 2004ac2:	bd08      	pop	{r3, pc}
 2004ac4:	2003      	movs	r0, #3
 2004ac6:	bd08      	pop	{r3, pc}

02004ac8 <uapi_io_init>:
 2004ac8:	b110      	cbz	r0, 2004ad0 <uapi_io_init+0x8>
 2004aca:	6802      	ldr	r2, [r0, #0]
 2004acc:	4b03      	ldr	r3, [pc, #12]	; (2004adc <uapi_io_init+0x14>)
 2004ace:	601a      	str	r2, [r3, #0]
 2004ad0:	b111      	cbz	r1, 2004ad8 <uapi_io_init+0x10>
 2004ad2:	680a      	ldr	r2, [r1, #0]
 2004ad4:	4b01      	ldr	r3, [pc, #4]	; (2004adc <uapi_io_init+0x14>)
 2004ad6:	605a      	str	r2, [r3, #4]
 2004ad8:	2000      	movs	r0, #0
 2004ada:	4770      	bx	lr
 2004adc:	40033000 	.word	0x40033000

02004ae0 <uapi_led_init>:
 2004ae0:	4b06      	ldr	r3, [pc, #24]	; (2004afc <uapi_led_init+0x1c>)
 2004ae2:	681b      	ldr	r3, [r3, #0]
 2004ae4:	b930      	cbnz	r0, 2004af4 <uapi_led_init+0x14>
 2004ae6:	f423 13f8 	bic.w	r3, r3, #2031616	; 0x1f0000
 2004aea:	2101      	movs	r1, #1
 2004aec:	4a03      	ldr	r2, [pc, #12]	; (2004afc <uapi_led_init+0x1c>)
 2004aee:	6013      	str	r3, [r2, #0]
 2004af0:	6651      	str	r1, [r2, #100]	; 0x64
 2004af2:	4770      	bx	lr
 2004af4:	f443 13f8 	orr.w	r3, r3, #2031616	; 0x1f0000
 2004af8:	e7f7      	b.n	2004aea <uapi_led_init+0xa>
 2004afa:	bf00      	nop
 2004afc:	40039000 	.word	0x40039000

02004b00 <spi_flash_set_protect>:
 2004b00:	2300      	movs	r3, #0
 2004b02:	e92d 41f0 	stmdb	sp!, {r4, r5, r6, r7, r8, lr}
